
sortingProject.elf:     file format elf32-avr

Sections:
Idx Name          Size      VMA       LMA       File off  Algn
  0 .data         00000122  00800100  000025f2  00002686  2**0
                  CONTENTS, ALLOC, LOAD, DATA
  1 .text         000025f2  00000000  00000000  00000094  2**1
                  CONTENTS, ALLOC, LOAD, READONLY, CODE
  2 .bss          00000422  00800222  00800222  000027a8  2**0
                  ALLOC
  3 .comment      0000005c  00000000  00000000  000027a8  2**0
                  CONTENTS, READONLY
  4 .note.gnu.avr.deviceinfo 00000040  00000000  00000000  00002804  2**2
                  CONTENTS, READONLY
  5 .debug_aranges 000002e0  00000000  00000000  00002844  2**0
                  CONTENTS, READONLY, DEBUGGING
  6 .debug_info   00005676  00000000  00000000  00002b24  2**0
                  CONTENTS, READONLY, DEBUGGING
  7 .debug_abbrev 00001ad1  00000000  00000000  0000819a  2**0
                  CONTENTS, READONLY, DEBUGGING
  8 .debug_line   00001c62  00000000  00000000  00009c6b  2**0
                  CONTENTS, READONLY, DEBUGGING
  9 .debug_frame  000008a4  00000000  00000000  0000b8d0  2**2
                  CONTENTS, READONLY, DEBUGGING
 10 .debug_str    000011f5  00000000  00000000  0000c174  2**0
                  CONTENTS, READONLY, DEBUGGING
 11 .debug_loc    0000247e  00000000  00000000  0000d369  2**0
                  CONTENTS, READONLY, DEBUGGING
 12 .debug_ranges 000002a8  00000000  00000000  0000f7e7  2**0
                  CONTENTS, READONLY, DEBUGGING

Disassembly of section .text:

00000000 <__vectors>:
       0:	ca c2       	rjmp	.+1428   	; 0x596 <__ctors_end>
       2:	00 00       	nop
       4:	f1 c2       	rjmp	.+1506   	; 0x5e8 <__bad_interrupt>
       6:	00 00       	nop
       8:	ef c2       	rjmp	.+1502   	; 0x5e8 <__bad_interrupt>
       a:	00 00       	nop
       c:	2d c4       	rjmp	.+2138   	; 0x868 <__vector_3>
       e:	00 00       	nop
      10:	d2 c4       	rjmp	.+2468   	; 0x9b6 <__vector_4>
      12:	00 00       	nop
      14:	e9 c2       	rjmp	.+1490   	; 0x5e8 <__bad_interrupt>
      16:	00 00       	nop
      18:	e7 c2       	rjmp	.+1486   	; 0x5e8 <__bad_interrupt>
      1a:	00 00       	nop
      1c:	e5 c2       	rjmp	.+1482   	; 0x5e8 <__bad_interrupt>
      1e:	00 00       	nop
      20:	e3 c2       	rjmp	.+1478   	; 0x5e8 <__bad_interrupt>
      22:	00 00       	nop
      24:	e1 c2       	rjmp	.+1474   	; 0x5e8 <__bad_interrupt>
      26:	00 00       	nop
      28:	df c2       	rjmp	.+1470   	; 0x5e8 <__bad_interrupt>
      2a:	00 00       	nop
      2c:	dd c2       	rjmp	.+1466   	; 0x5e8 <__bad_interrupt>
      2e:	00 00       	nop
      30:	db c2       	rjmp	.+1462   	; 0x5e8 <__bad_interrupt>
      32:	00 00       	nop
      34:	d9 c2       	rjmp	.+1458   	; 0x5e8 <__bad_interrupt>
      36:	00 00       	nop
      38:	d7 c2       	rjmp	.+1454   	; 0x5e8 <__bad_interrupt>
      3a:	00 00       	nop
      3c:	d5 c2       	rjmp	.+1450   	; 0x5e8 <__bad_interrupt>
      3e:	00 00       	nop
      40:	d3 c2       	rjmp	.+1446   	; 0x5e8 <__bad_interrupt>
      42:	00 00       	nop
      44:	d1 c2       	rjmp	.+1442   	; 0x5e8 <__bad_interrupt>
      46:	00 00       	nop
      48:	cf c2       	rjmp	.+1438   	; 0x5e8 <__bad_interrupt>
      4a:	00 00       	nop
      4c:	cd c2       	rjmp	.+1434   	; 0x5e8 <__bad_interrupt>
      4e:	00 00       	nop
      50:	cb c2       	rjmp	.+1430   	; 0x5e8 <__bad_interrupt>
      52:	00 00       	nop
      54:	0c 94 7d 0e 	jmp	0x1cfa	; 0x1cfa <__vector_21>
      58:	c7 c2       	rjmp	.+1422   	; 0x5e8 <__bad_interrupt>
      5a:	00 00       	nop
      5c:	c5 c2       	rjmp	.+1418   	; 0x5e8 <__bad_interrupt>
      5e:	00 00       	nop
      60:	c3 c2       	rjmp	.+1414   	; 0x5e8 <__bad_interrupt>
      62:	00 00       	nop
      64:	c1 c2       	rjmp	.+1410   	; 0x5e8 <__bad_interrupt>
      66:	00 00       	nop
      68:	bf c2       	rjmp	.+1406   	; 0x5e8 <__bad_interrupt>
      6a:	00 00       	nop
      6c:	bd c2       	rjmp	.+1402   	; 0x5e8 <__bad_interrupt>
      6e:	00 00       	nop
      70:	bb c2       	rjmp	.+1398   	; 0x5e8 <__bad_interrupt>
      72:	00 00       	nop
      74:	bb c3       	rjmp	.+1910   	; 0x7ec <__vector_29>
      76:	00 00       	nop
      78:	b7 c2       	rjmp	.+1390   	; 0x5e8 <__bad_interrupt>
      7a:	00 00       	nop
      7c:	b5 c2       	rjmp	.+1386   	; 0x5e8 <__bad_interrupt>
      7e:	00 00       	nop
      80:	b3 c2       	rjmp	.+1382   	; 0x5e8 <__bad_interrupt>
      82:	00 00       	nop
      84:	b1 c2       	rjmp	.+1378   	; 0x5e8 <__bad_interrupt>
      86:	00 00       	nop
      88:	af c2       	rjmp	.+1374   	; 0x5e8 <__bad_interrupt>
      8a:	00 00       	nop
      8c:	ad c2       	rjmp	.+1370   	; 0x5e8 <__bad_interrupt>
      8e:	00 00       	nop
      90:	ab c2       	rjmp	.+1366   	; 0x5e8 <__bad_interrupt>
      92:	00 00       	nop
      94:	a9 c2       	rjmp	.+1362   	; 0x5e8 <__bad_interrupt>
	...

00000098 <__trampolines_end>:
      98:	00 00       	nop
      9a:	00 00       	nop
      9c:	00 3e       	cpi	r16, 0xE0	; 224
      9e:	5b 4f       	sbci	r21, 0xFB	; 251
      a0:	5b 3e       	cpi	r21, 0xEB	; 235
      a2:	3e 6b       	ori	r19, 0xBE	; 190
      a4:	4f 6b       	ori	r20, 0xBF	; 191
      a6:	3e 1c       	adc	r3, r14
      a8:	3e 7c       	andi	r19, 0xCE	; 206
      aa:	3e 1c       	adc	r3, r14
      ac:	18 3c       	cpi	r17, 0xC8	; 200
      ae:	7e 3c       	cpi	r23, 0xCE	; 206
      b0:	18 1c       	adc	r1, r8
      b2:	57 7d       	andi	r21, 0xD7	; 215
      b4:	57 1c       	adc	r5, r7
      b6:	1c 5e       	subi	r17, 0xEC	; 236
      b8:	7f 5e       	subi	r23, 0xEF	; 239
      ba:	1c 00       	.word	0x001c	; ????
      bc:	18 3c       	cpi	r17, 0xC8	; 200
      be:	18 00       	.word	0x0018	; ????
      c0:	ff e7       	ldi	r31, 0x7F	; 127
      c2:	c3 e7       	ldi	r28, 0x73	; 115
      c4:	ff 00       	.word	0x00ff	; ????
      c6:	18 24       	eor	r1, r8
      c8:	18 00       	.word	0x0018	; ????
      ca:	ff e7       	ldi	r31, 0x7F	; 127
      cc:	db e7       	ldi	r29, 0x7B	; 123
      ce:	ff 30       	cpi	r31, 0x0F	; 15
      d0:	48 3a       	cpi	r20, 0xA8	; 168
      d2:	06 0e       	add	r0, r22
      d4:	26 29       	or	r18, r6
      d6:	79 29       	or	r23, r9
      d8:	26 40       	sbci	r18, 0x06	; 6
      da:	7f 05       	cpc	r23, r15
      dc:	05 07       	cpc	r16, r21
      de:	40 7f       	andi	r20, 0xF0	; 240
      e0:	05 25       	eor	r16, r5
      e2:	3f 5a       	subi	r19, 0xAF	; 175
      e4:	3c e7       	ldi	r19, 0x7C	; 124
      e6:	3c 5a       	subi	r19, 0xAC	; 172
      e8:	7f 3e       	cpi	r23, 0xEF	; 239
      ea:	1c 1c       	adc	r1, r12
      ec:	08 08       	sbc	r0, r8
      ee:	1c 1c       	adc	r1, r12
      f0:	3e 7f       	andi	r19, 0xFE	; 254
      f2:	14 22       	and	r1, r20
      f4:	7f 22       	and	r7, r31
      f6:	14 5f       	subi	r17, 0xF4	; 244
      f8:	5f 00       	.word	0x005f	; ????
      fa:	5f 5f       	subi	r21, 0xFF	; 255
      fc:	06 09       	sbc	r16, r6
      fe:	7f 01       	movw	r14, r30
     100:	7f 00       	.word	0x007f	; ????
     102:	66 89       	ldd	r22, Z+22	; 0x16
     104:	95 6a       	ori	r25, 0xA5	; 165
     106:	60 60       	ori	r22, 0x00	; 0
     108:	60 60       	ori	r22, 0x00	; 0
     10a:	60 94       	com	r6
     10c:	a2 ff       	sbrs	r26, 2
     10e:	a2 94       	swap	r10
     110:	08 04       	cpc	r0, r8
     112:	7e 04       	cpc	r7, r14
     114:	08 10       	cpse	r0, r8
     116:	20 7e       	andi	r18, 0xE0	; 224
     118:	20 10       	cpse	r2, r0
     11a:	08 08       	sbc	r0, r8
     11c:	2a 1c       	adc	r2, r10
     11e:	08 08       	sbc	r0, r8
     120:	1c 2a       	or	r1, r28
     122:	08 08       	sbc	r0, r8
     124:	1e 10       	cpse	r1, r14
     126:	10 10       	cpse	r1, r0
     128:	10 0c       	add	r1, r0
     12a:	1e 0c       	add	r1, r14
     12c:	1e 0c       	add	r1, r14
     12e:	30 38       	cpi	r19, 0x80	; 128
     130:	3e 38       	cpi	r19, 0x8E	; 142
     132:	30 06       	cpc	r3, r16
     134:	0e 3e       	cpi	r16, 0xEE	; 238
     136:	0e 06       	cpc	r0, r30
     138:	00 00       	nop
     13a:	00 00       	nop
     13c:	00 00       	nop
     13e:	00 5f       	subi	r16, 0xF0	; 240
     140:	00 00       	nop
     142:	00 07       	cpc	r16, r16
     144:	00 07       	cpc	r16, r16
     146:	00 14       	cp	r0, r0
     148:	7f 14       	cp	r7, r15
     14a:	7f 14       	cp	r7, r15
     14c:	24 2a       	or	r2, r20
     14e:	7f 2a       	or	r7, r31
     150:	12 23       	and	r17, r18
     152:	13 08       	sbc	r1, r3
     154:	64 62       	ori	r22, 0x24	; 36
     156:	36 49       	sbci	r19, 0x96	; 150
     158:	56 20       	and	r5, r6
     15a:	50 00       	.word	0x0050	; ????
     15c:	08 07       	cpc	r16, r24
     15e:	03 00       	.word	0x0003	; ????
     160:	00 1c       	adc	r0, r0
     162:	22 41       	sbci	r18, 0x12	; 18
     164:	00 00       	nop
     166:	41 22       	and	r4, r17
     168:	1c 00       	.word	0x001c	; ????
     16a:	2a 1c       	adc	r2, r10
     16c:	7f 1c       	adc	r7, r15
     16e:	2a 08       	sbc	r2, r10
     170:	08 3e       	cpi	r16, 0xE8	; 232
     172:	08 08       	sbc	r0, r8
     174:	00 80       	ld	r0, Z
     176:	70 30       	cpi	r23, 0x00	; 0
     178:	00 08       	sbc	r0, r0
     17a:	08 08       	sbc	r0, r8
     17c:	08 08       	sbc	r0, r8
     17e:	00 00       	nop
     180:	60 60       	ori	r22, 0x00	; 0
     182:	00 20       	and	r0, r0
     184:	10 08       	sbc	r1, r0
     186:	04 02       	muls	r16, r20
     188:	3e 51       	subi	r19, 0x1E	; 30
     18a:	49 45       	sbci	r20, 0x59	; 89
     18c:	3e 00       	.word	0x003e	; ????
     18e:	42 7f       	andi	r20, 0xF2	; 242
     190:	40 00       	.word	0x0040	; ????
     192:	72 49       	sbci	r23, 0x92	; 146
     194:	49 49       	sbci	r20, 0x99	; 153
     196:	46 21       	and	r20, r6
     198:	41 49       	sbci	r20, 0x91	; 145
     19a:	4d 33       	cpi	r20, 0x3D	; 61
     19c:	18 14       	cp	r1, r8
     19e:	12 7f       	andi	r17, 0xF2	; 242
     1a0:	10 27       	eor	r17, r16
     1a2:	45 45       	sbci	r20, 0x55	; 85
     1a4:	45 39       	cpi	r20, 0x95	; 149
     1a6:	3c 4a       	sbci	r19, 0xAC	; 172
     1a8:	49 49       	sbci	r20, 0x99	; 153
     1aa:	31 41       	sbci	r19, 0x11	; 17
     1ac:	21 11       	cpse	r18, r1
     1ae:	09 07       	cpc	r16, r25
     1b0:	36 49       	sbci	r19, 0x96	; 150
     1b2:	49 49       	sbci	r20, 0x99	; 153
     1b4:	36 46       	sbci	r19, 0x66	; 102
     1b6:	49 49       	sbci	r20, 0x99	; 153
     1b8:	29 1e       	adc	r2, r25
     1ba:	00 00       	nop
     1bc:	14 00       	.word	0x0014	; ????
     1be:	00 00       	nop
     1c0:	40 34       	cpi	r20, 0x40	; 64
     1c2:	00 00       	nop
     1c4:	00 08       	sbc	r0, r0
     1c6:	14 22       	and	r1, r20
     1c8:	41 14       	cp	r4, r1
     1ca:	14 14       	cp	r1, r4
     1cc:	14 14       	cp	r1, r4
     1ce:	00 41       	sbci	r16, 0x10	; 16
     1d0:	22 14       	cp	r2, r2
     1d2:	08 02       	muls	r16, r24
     1d4:	01 59       	subi	r16, 0x91	; 145
     1d6:	09 06       	cpc	r0, r25
     1d8:	3e 41       	sbci	r19, 0x1E	; 30
     1da:	5d 59       	subi	r21, 0x9D	; 157
     1dc:	4e 7c       	andi	r20, 0xCE	; 206
     1de:	12 11       	cpse	r17, r2
     1e0:	12 7c       	andi	r17, 0xC2	; 194
     1e2:	7f 49       	sbci	r23, 0x9F	; 159
     1e4:	49 49       	sbci	r20, 0x99	; 153
     1e6:	36 3e       	cpi	r19, 0xE6	; 230
     1e8:	41 41       	sbci	r20, 0x11	; 17
     1ea:	41 22       	and	r4, r17
     1ec:	7f 41       	sbci	r23, 0x1F	; 31
     1ee:	41 41       	sbci	r20, 0x11	; 17
     1f0:	3e 7f       	andi	r19, 0xFE	; 254
     1f2:	49 49       	sbci	r20, 0x99	; 153
     1f4:	49 41       	sbci	r20, 0x19	; 25
     1f6:	7f 09       	sbc	r23, r15
     1f8:	09 09       	sbc	r16, r9
     1fa:	01 3e       	cpi	r16, 0xE1	; 225
     1fc:	41 41       	sbci	r20, 0x11	; 17
     1fe:	51 73       	andi	r21, 0x31	; 49
     200:	7f 08       	sbc	r7, r15
     202:	08 08       	sbc	r0, r8
     204:	7f 00       	.word	0x007f	; ????
     206:	41 7f       	andi	r20, 0xF1	; 241
     208:	41 00       	.word	0x0041	; ????
     20a:	20 40       	sbci	r18, 0x00	; 0
     20c:	41 3f       	cpi	r20, 0xF1	; 241
     20e:	01 7f       	andi	r16, 0xF1	; 241
     210:	08 14       	cp	r0, r8
     212:	22 41       	sbci	r18, 0x12	; 18
     214:	7f 40       	sbci	r23, 0x0F	; 15
     216:	40 40       	sbci	r20, 0x00	; 0
     218:	40 7f       	andi	r20, 0xF0	; 240
     21a:	02 1c       	adc	r0, r2
     21c:	02 7f       	andi	r16, 0xF2	; 242
     21e:	7f 04       	cpc	r7, r15
     220:	08 10       	cpse	r0, r8
     222:	7f 3e       	cpi	r23, 0xEF	; 239
     224:	41 41       	sbci	r20, 0x11	; 17
     226:	41 3e       	cpi	r20, 0xE1	; 225
     228:	7f 09       	sbc	r23, r15
     22a:	09 09       	sbc	r16, r9
     22c:	06 3e       	cpi	r16, 0xE6	; 230
     22e:	41 51       	subi	r20, 0x11	; 17
     230:	21 5e       	subi	r18, 0xE1	; 225
     232:	7f 09       	sbc	r23, r15
     234:	19 29       	or	r17, r9
     236:	46 26       	eor	r4, r22
     238:	49 49       	sbci	r20, 0x99	; 153
     23a:	49 32       	cpi	r20, 0x29	; 41
     23c:	03 01       	movw	r0, r6
     23e:	7f 01       	movw	r14, r30
     240:	03 3f       	cpi	r16, 0xF3	; 243
     242:	40 40       	sbci	r20, 0x00	; 0
     244:	40 3f       	cpi	r20, 0xF0	; 240
     246:	1f 20       	and	r1, r15
     248:	40 20       	and	r4, r0
     24a:	1f 3f       	cpi	r17, 0xFF	; 255
     24c:	40 38       	cpi	r20, 0x80	; 128
     24e:	40 3f       	cpi	r20, 0xF0	; 240
     250:	63 14       	cp	r6, r3
     252:	08 14       	cp	r0, r8
     254:	63 03       	mulsu	r22, r19
     256:	04 78       	andi	r16, 0x84	; 132
     258:	04 03       	mulsu	r16, r20
     25a:	61 59       	subi	r22, 0x91	; 145
     25c:	49 4d       	sbci	r20, 0xD9	; 217
     25e:	43 00       	.word	0x0043	; ????
     260:	7f 41       	sbci	r23, 0x1F	; 31
     262:	41 41       	sbci	r20, 0x11	; 17
     264:	02 04       	cpc	r0, r2
     266:	08 10       	cpse	r0, r8
     268:	20 00       	.word	0x0020	; ????
     26a:	41 41       	sbci	r20, 0x11	; 17
     26c:	41 7f       	andi	r20, 0xF1	; 241
     26e:	04 02       	muls	r16, r20
     270:	01 02       	muls	r16, r17
     272:	04 40       	sbci	r16, 0x04	; 4
     274:	40 40       	sbci	r20, 0x00	; 0
     276:	40 40       	sbci	r20, 0x00	; 0
     278:	00 03       	mulsu	r16, r16
     27a:	07 08       	sbc	r0, r7
     27c:	00 20       	and	r0, r0
     27e:	54 54       	subi	r21, 0x44	; 68
     280:	78 40       	sbci	r23, 0x08	; 8
     282:	7f 28       	or	r7, r15
     284:	44 44       	sbci	r20, 0x44	; 68
     286:	38 38       	cpi	r19, 0x88	; 136
     288:	44 44       	sbci	r20, 0x44	; 68
     28a:	44 28       	or	r4, r4
     28c:	38 44       	sbci	r19, 0x48	; 72
     28e:	44 28       	or	r4, r4
     290:	7f 38       	cpi	r23, 0x8F	; 143
     292:	54 54       	subi	r21, 0x44	; 68
     294:	54 18       	sub	r5, r4
     296:	00 08       	sbc	r0, r0
     298:	7e 09       	sbc	r23, r14
     29a:	02 18       	sub	r0, r2
     29c:	a4 a4       	ldd	r10, Z+44	; 0x2c
     29e:	9c 78       	andi	r25, 0x8C	; 140
     2a0:	7f 08       	sbc	r7, r15
     2a2:	04 04       	cpc	r0, r4
     2a4:	78 00       	.word	0x0078	; ????
     2a6:	44 7d       	andi	r20, 0xD4	; 212
     2a8:	40 00       	.word	0x0040	; ????
     2aa:	20 40       	sbci	r18, 0x00	; 0
     2ac:	40 3d       	cpi	r20, 0xD0	; 208
     2ae:	00 7f       	andi	r16, 0xF0	; 240
     2b0:	10 28       	or	r1, r0
     2b2:	44 00       	.word	0x0044	; ????
     2b4:	00 41       	sbci	r16, 0x10	; 16
     2b6:	7f 40       	sbci	r23, 0x0F	; 15
     2b8:	00 7c       	andi	r16, 0xC0	; 192
     2ba:	04 78       	andi	r16, 0x84	; 132
     2bc:	04 78       	andi	r16, 0x84	; 132
     2be:	7c 08       	sbc	r7, r12
     2c0:	04 04       	cpc	r0, r4
     2c2:	78 38       	cpi	r23, 0x88	; 136
     2c4:	44 44       	sbci	r20, 0x44	; 68
     2c6:	44 38       	cpi	r20, 0x84	; 132
     2c8:	fc 18       	sub	r15, r12
     2ca:	24 24       	eor	r2, r4
     2cc:	18 18       	sub	r1, r8
     2ce:	24 24       	eor	r2, r4
     2d0:	18 fc       	.word	0xfc18	; ????
     2d2:	7c 08       	sbc	r7, r12
     2d4:	04 04       	cpc	r0, r4
     2d6:	08 48       	sbci	r16, 0x88	; 136
     2d8:	54 54       	subi	r21, 0x44	; 68
     2da:	54 24       	eor	r5, r4
     2dc:	04 04       	cpc	r0, r4
     2de:	3f 44       	sbci	r19, 0x4F	; 79
     2e0:	24 3c       	cpi	r18, 0xC4	; 196
     2e2:	40 40       	sbci	r20, 0x00	; 0
     2e4:	20 7c       	andi	r18, 0xC0	; 192
     2e6:	1c 20       	and	r1, r12
     2e8:	40 20       	and	r4, r0
     2ea:	1c 3c       	cpi	r17, 0xCC	; 204
     2ec:	40 30       	cpi	r20, 0x00	; 0
     2ee:	40 3c       	cpi	r20, 0xC0	; 192
     2f0:	44 28       	or	r4, r4
     2f2:	10 28       	or	r1, r0
     2f4:	44 4c       	sbci	r20, 0xC4	; 196
     2f6:	90 90 90 7c 	lds	r9, 0x7C90	; 0x807c90 <__bss_end+0x764c>
     2fa:	44 64       	ori	r20, 0x44	; 68
     2fc:	54 4c       	sbci	r21, 0xC4	; 196
     2fe:	44 00       	.word	0x0044	; ????
     300:	08 36       	cpi	r16, 0x68	; 104
     302:	41 00       	.word	0x0041	; ????
     304:	00 00       	nop
     306:	77 00       	.word	0x0077	; ????
     308:	00 00       	nop
     30a:	41 36       	cpi	r20, 0x61	; 97
     30c:	08 00       	.word	0x0008	; ????
     30e:	02 01       	movw	r0, r4
     310:	02 04       	cpc	r0, r2
     312:	02 3c       	cpi	r16, 0xC2	; 194
     314:	26 23       	and	r18, r22
     316:	26 3c       	cpi	r18, 0xC6	; 198
     318:	1e a1       	ldd	r17, Y+38	; 0x26
     31a:	a1 61       	ori	r26, 0x11	; 17
     31c:	12 3a       	cpi	r17, 0xA2	; 162
     31e:	40 40       	sbci	r20, 0x00	; 0
     320:	20 7a       	andi	r18, 0xA0	; 160
     322:	38 54       	subi	r19, 0x48	; 72
     324:	54 55       	subi	r21, 0x54	; 84
     326:	59 21       	and	r21, r9
     328:	55 55       	subi	r21, 0x55	; 85
     32a:	79 41       	sbci	r23, 0x19	; 25
     32c:	22 54       	subi	r18, 0x42	; 66
     32e:	54 78       	andi	r21, 0x84	; 132
     330:	42 21       	and	r20, r2
     332:	55 54       	subi	r21, 0x45	; 69
     334:	78 40       	sbci	r23, 0x08	; 8
     336:	20 54       	subi	r18, 0x40	; 64
     338:	55 79       	andi	r21, 0x95	; 149
     33a:	40 0c       	add	r4, r0
     33c:	1e 52       	subi	r17, 0x2E	; 46
     33e:	72 12       	cpse	r7, r18
     340:	39 55       	subi	r19, 0x59	; 89
     342:	55 55       	subi	r21, 0x55	; 85
     344:	59 39       	cpi	r21, 0x99	; 153
     346:	54 54       	subi	r21, 0x44	; 68
     348:	54 59       	subi	r21, 0x94	; 148
     34a:	39 55       	subi	r19, 0x59	; 89
     34c:	54 54       	subi	r21, 0x44	; 68
     34e:	58 00       	.word	0x0058	; ????
     350:	00 45       	sbci	r16, 0x50	; 80
     352:	7c 41       	sbci	r23, 0x1C	; 28
     354:	00 02       	muls	r16, r16
     356:	45 7d       	andi	r20, 0xD5	; 213
     358:	42 00       	.word	0x0042	; ????
     35a:	01 45       	sbci	r16, 0x51	; 81
     35c:	7c 40       	sbci	r23, 0x0C	; 12
     35e:	7d 12       	cpse	r7, r29
     360:	11 12       	cpse	r1, r17
     362:	7d f0       	brhs	.+30     	; 0x382 <__trampolines_end+0x2ea>
     364:	28 25       	eor	r18, r8
     366:	28 f0       	brcs	.+10     	; 0x372 <__trampolines_end+0x2da>
     368:	7c 54       	subi	r23, 0x4C	; 76
     36a:	55 45       	sbci	r21, 0x55	; 85
     36c:	00 20       	and	r0, r0
     36e:	54 54       	subi	r21, 0x44	; 68
     370:	7c 54       	subi	r23, 0x4C	; 76
     372:	7c 0a       	sbc	r7, r28
     374:	09 7f       	andi	r16, 0xF9	; 249
     376:	49 32       	cpi	r20, 0x29	; 41
     378:	49 49       	sbci	r20, 0x99	; 153
     37a:	49 32       	cpi	r20, 0x29	; 41
     37c:	3a 44       	sbci	r19, 0x4A	; 74
     37e:	44 44       	sbci	r20, 0x44	; 68
     380:	3a 32       	cpi	r19, 0x2A	; 42
     382:	4a 48       	sbci	r20, 0x8A	; 138
     384:	48 30       	cpi	r20, 0x08	; 8
     386:	3a 41       	sbci	r19, 0x1A	; 26
     388:	41 21       	and	r20, r1
     38a:	7a 3a       	cpi	r23, 0xAA	; 170
     38c:	42 40       	sbci	r20, 0x02	; 2
     38e:	20 78       	andi	r18, 0x80	; 128
     390:	00 9d       	mul	r16, r0
     392:	a0 a0       	ldd	r10, Z+32	; 0x20
     394:	7d 3d       	cpi	r23, 0xDD	; 221
     396:	42 42       	sbci	r20, 0x22	; 34
     398:	42 3d       	cpi	r20, 0xD2	; 210
     39a:	3d 40       	sbci	r19, 0x0D	; 13
     39c:	40 40       	sbci	r20, 0x00	; 0
     39e:	3d 3c       	cpi	r19, 0xCD	; 205
     3a0:	24 ff       	sbrs	r18, 4
     3a2:	24 24       	eor	r2, r4
     3a4:	48 7e       	andi	r20, 0xE8	; 232
     3a6:	49 43       	sbci	r20, 0x39	; 57
     3a8:	66 2b       	or	r22, r22
     3aa:	2f fc       	.word	0xfc2f	; ????
     3ac:	2f 2b       	or	r18, r31
     3ae:	ff 09       	sbc	r31, r15
     3b0:	29 f6       	brne	.-118    	; 0x33c <__trampolines_end+0x2a4>
     3b2:	20 c0       	rjmp	.+64     	; 0x3f4 <__trampolines_end+0x35c>
     3b4:	88 7e       	andi	r24, 0xE8	; 232
     3b6:	09 03       	fmul	r16, r17
     3b8:	20 54       	subi	r18, 0x40	; 64
     3ba:	54 79       	andi	r21, 0x94	; 148
     3bc:	41 00       	.word	0x0041	; ????
     3be:	00 44       	sbci	r16, 0x40	; 64
     3c0:	7d 41       	sbci	r23, 0x1D	; 29
     3c2:	30 48       	sbci	r19, 0x80	; 128
     3c4:	48 4a       	sbci	r20, 0xA8	; 168
     3c6:	32 38       	cpi	r19, 0x82	; 130
     3c8:	40 40       	sbci	r20, 0x00	; 0
     3ca:	22 7a       	andi	r18, 0xA2	; 162
     3cc:	00 7a       	andi	r16, 0xA0	; 160
     3ce:	0a 0a       	sbc	r0, r26
     3d0:	72 7d       	andi	r23, 0xD2	; 210
     3d2:	0d 19       	sub	r16, r13
     3d4:	31 7d       	andi	r19, 0xD1	; 209
     3d6:	26 29       	or	r18, r6
     3d8:	29 2f       	mov	r18, r25
     3da:	28 26       	eor	r2, r24
     3dc:	29 29       	or	r18, r9
     3de:	29 26       	eor	r2, r25
     3e0:	30 48       	sbci	r19, 0x80	; 128
     3e2:	4d 40       	sbci	r20, 0x0D	; 13
     3e4:	20 38       	cpi	r18, 0x80	; 128
     3e6:	08 08       	sbc	r0, r8
     3e8:	08 08       	sbc	r0, r8
     3ea:	08 08       	sbc	r0, r8
     3ec:	08 08       	sbc	r0, r8
     3ee:	38 2f       	mov	r19, r24
     3f0:	10 c8       	rjmp	.-4064   	; 0xfffff412 <__eeprom_end+0xff7ef412>
     3f2:	ac ba       	out	0x1c, r10	; 28
     3f4:	2f 10       	cpse	r2, r15
     3f6:	28 34       	cpi	r18, 0x48	; 72
     3f8:	fa 00       	.word	0x00fa	; ????
     3fa:	00 7b       	andi	r16, 0xB0	; 176
     3fc:	00 00       	nop
     3fe:	08 14       	cp	r0, r8
     400:	2a 14       	cp	r2, r10
     402:	22 22       	and	r2, r18
     404:	14 2a       	or	r1, r20
     406:	14 08       	sbc	r1, r4
     408:	aa 00       	.word	0x00aa	; ????
     40a:	55 00       	.word	0x0055	; ????
     40c:	aa aa       	std	Y+50, r10	; 0x32
     40e:	55 aa       	std	Z+53, r5	; 0x35
     410:	55 aa       	std	Z+53, r5	; 0x35
     412:	00 00       	nop
     414:	00 ff       	sbrs	r16, 0
     416:	00 10       	cpse	r0, r0
     418:	10 10       	cpse	r1, r0
     41a:	ff 00       	.word	0x00ff	; ????
     41c:	14 14       	cp	r1, r4
     41e:	14 ff       	sbrs	r17, 4
     420:	00 10       	cpse	r0, r0
     422:	10 ff       	sbrs	r17, 0
     424:	00 ff       	sbrs	r16, 0
     426:	10 10       	cpse	r1, r0
     428:	f0 10       	cpse	r15, r0
     42a:	f0 14       	cp	r15, r0
     42c:	14 14       	cp	r1, r4
     42e:	fc 00       	.word	0x00fc	; ????
     430:	14 14       	cp	r1, r4
     432:	f7 00       	.word	0x00f7	; ????
     434:	ff 00       	.word	0x00ff	; ????
     436:	00 ff       	sbrs	r16, 0
     438:	00 ff       	sbrs	r16, 0
     43a:	14 14       	cp	r1, r4
     43c:	f4 04       	cpc	r15, r4
     43e:	fc 14       	cp	r15, r12
     440:	14 17       	cp	r17, r20
     442:	10 1f       	adc	r17, r16
     444:	10 10       	cpse	r1, r0
     446:	1f 10       	cpse	r1, r15
     448:	1f 14       	cp	r1, r15
     44a:	14 14       	cp	r1, r4
     44c:	1f 00       	.word	0x001f	; ????
     44e:	10 10       	cpse	r1, r0
     450:	10 f0       	brcs	.+4      	; 0x456 <__LOCK_REGION_LENGTH__+0x56>
     452:	00 00       	nop
     454:	00 00       	nop
     456:	1f 10       	cpse	r1, r15
     458:	10 10       	cpse	r1, r0
     45a:	10 1f       	adc	r17, r16
     45c:	10 10       	cpse	r1, r0
     45e:	10 10       	cpse	r1, r0
     460:	f0 10       	cpse	r15, r0
     462:	00 00       	nop
     464:	00 ff       	sbrs	r16, 0
     466:	10 10       	cpse	r1, r0
     468:	10 10       	cpse	r1, r0
     46a:	10 10       	cpse	r1, r0
     46c:	10 10       	cpse	r1, r0
     46e:	10 ff       	sbrs	r17, 0
     470:	10 00       	.word	0x0010	; ????
     472:	00 00       	nop
     474:	ff 14       	cp	r15, r15
     476:	00 00       	nop
     478:	ff 00       	.word	0x00ff	; ????
     47a:	ff 00       	.word	0x00ff	; ????
     47c:	00 1f       	adc	r16, r16
     47e:	10 17       	cp	r17, r16
     480:	00 00       	nop
     482:	fc 04       	cpc	r15, r12
     484:	f4 14       	cp	r15, r4
     486:	14 17       	cp	r17, r20
     488:	10 17       	cp	r17, r16
     48a:	14 14       	cp	r1, r4
     48c:	f4 04       	cpc	r15, r4
     48e:	f4 00       	.word	0x00f4	; ????
     490:	00 ff       	sbrs	r16, 0
     492:	00 f7       	brcc	.-64     	; 0x454 <__LOCK_REGION_LENGTH__+0x54>
     494:	14 14       	cp	r1, r4
     496:	14 14       	cp	r1, r4
     498:	14 14       	cp	r1, r4
     49a:	14 f7       	brge	.-60     	; 0x460 <__LOCK_REGION_LENGTH__+0x60>
     49c:	00 f7       	brcc	.-64     	; 0x45e <__LOCK_REGION_LENGTH__+0x5e>
     49e:	14 14       	cp	r1, r4
     4a0:	14 17       	cp	r17, r20
     4a2:	14 10       	cpse	r1, r4
     4a4:	10 1f       	adc	r17, r16
     4a6:	10 1f       	adc	r17, r16
     4a8:	14 14       	cp	r1, r4
     4aa:	14 f4       	brge	.+4      	; 0x4b0 <__LOCK_REGION_LENGTH__+0xb0>
     4ac:	14 10       	cpse	r1, r4
     4ae:	10 f0       	brcs	.+4      	; 0x4b4 <__LOCK_REGION_LENGTH__+0xb4>
     4b0:	10 f0       	brcs	.+4      	; 0x4b6 <__LOCK_REGION_LENGTH__+0xb6>
     4b2:	00 00       	nop
     4b4:	1f 10       	cpse	r1, r15
     4b6:	1f 00       	.word	0x001f	; ????
     4b8:	00 00       	nop
     4ba:	1f 14       	cp	r1, r15
     4bc:	00 00       	nop
     4be:	00 fc       	sbrc	r0, 0
     4c0:	14 00       	.word	0x0014	; ????
     4c2:	00 f0       	brcs	.+0      	; 0x4c4 <__LOCK_REGION_LENGTH__+0xc4>
     4c4:	10 f0       	brcs	.+4      	; 0x4ca <__LOCK_REGION_LENGTH__+0xca>
     4c6:	10 10       	cpse	r1, r0
     4c8:	ff 10       	cpse	r15, r15
     4ca:	ff 14       	cp	r15, r15
     4cc:	14 14       	cp	r1, r4
     4ce:	ff 14       	cp	r15, r15
     4d0:	10 10       	cpse	r1, r0
     4d2:	10 1f       	adc	r17, r16
     4d4:	00 00       	nop
     4d6:	00 00       	nop
     4d8:	f0 10       	cpse	r15, r0
     4da:	ff ff       	.word	0xffff	; ????
     4dc:	ff ff       	.word	0xffff	; ????
     4de:	ff f0       	brie	.+62     	; 0x51e <__LOCK_REGION_LENGTH__+0x11e>
     4e0:	f0 f0       	brcs	.+60     	; 0x51e <__LOCK_REGION_LENGTH__+0x11e>
     4e2:	f0 f0       	brcs	.+60     	; 0x520 <__LOCK_REGION_LENGTH__+0x120>
     4e4:	ff ff       	.word	0xffff	; ????
     4e6:	ff 00       	.word	0x00ff	; ????
     4e8:	00 00       	nop
     4ea:	00 00       	nop
     4ec:	ff ff       	.word	0xffff	; ????
     4ee:	0f 0f       	add	r16, r31
     4f0:	0f 0f       	add	r16, r31
     4f2:	0f 38       	cpi	r16, 0x8F	; 143
     4f4:	44 44       	sbci	r20, 0x44	; 68
     4f6:	38 44       	sbci	r19, 0x48	; 72
     4f8:	fc 4a       	sbci	r31, 0xAC	; 172
     4fa:	4a 4a       	sbci	r20, 0xAA	; 170
     4fc:	34 7e       	andi	r19, 0xE4	; 228
     4fe:	02 02       	muls	r16, r18
     500:	06 06       	cpc	r0, r22
     502:	02 7e       	andi	r16, 0xE2	; 226
     504:	02 7e       	andi	r16, 0xE2	; 226
     506:	02 63       	ori	r16, 0x32	; 50
     508:	55 49       	sbci	r21, 0x95	; 149
     50a:	41 63       	ori	r20, 0x31	; 49
     50c:	38 44       	sbci	r19, 0x48	; 72
     50e:	44 3c       	cpi	r20, 0xC4	; 196
     510:	04 40       	sbci	r16, 0x04	; 4
     512:	7e 20       	and	r7, r14
     514:	1e 20       	and	r1, r14
     516:	06 02       	muls	r16, r22
     518:	7e 02       	muls	r23, r30
     51a:	02 99       	sbic	0x00, 2	; 0
     51c:	a5 e7       	ldi	r26, 0x75	; 117
     51e:	a5 99       	sbic	0x14, 5	; 20
     520:	1c 2a       	or	r1, r28
     522:	49 2a       	or	r4, r25
     524:	1c 4c       	sbci	r17, 0xCC	; 204
     526:	72 01       	movw	r14, r4
     528:	72 4c       	sbci	r23, 0xC2	; 194
     52a:	30 4a       	sbci	r19, 0xA0	; 160
     52c:	4d 4d       	sbci	r20, 0xDD	; 221
     52e:	30 30       	cpi	r19, 0x00	; 0
     530:	48 78       	andi	r20, 0x88	; 136
     532:	48 30       	cpi	r20, 0x08	; 8
     534:	bc 62       	ori	r27, 0x2C	; 44
     536:	5a 46       	sbci	r21, 0x6A	; 106
     538:	3d 3e       	cpi	r19, 0xED	; 237
     53a:	49 49       	sbci	r20, 0x99	; 153
     53c:	49 00       	.word	0x0049	; ????
     53e:	7e 01       	movw	r14, r28
     540:	01 01       	movw	r0, r2
     542:	7e 2a       	or	r7, r30
     544:	2a 2a       	or	r2, r26
     546:	2a 2a       	or	r2, r26
     548:	44 44       	sbci	r20, 0x44	; 68
     54a:	5f 44       	sbci	r21, 0x4F	; 79
     54c:	44 40       	sbci	r20, 0x04	; 4
     54e:	51 4a       	sbci	r21, 0xA1	; 161
     550:	44 40       	sbci	r20, 0x04	; 4
     552:	40 44       	sbci	r20, 0x40	; 64
     554:	4a 51       	subi	r20, 0x1A	; 26
     556:	40 00       	.word	0x0040	; ????
     558:	00 ff       	sbrs	r16, 0
     55a:	01 03       	mulsu	r16, r17
     55c:	e0 80       	ld	r14, Z
     55e:	ff 00       	.word	0x00ff	; ????
     560:	00 08       	sbc	r0, r0
     562:	08 6b       	ori	r16, 0xB8	; 184
     564:	6b 08       	sbc	r6, r11
     566:	36 12       	cpse	r3, r22
     568:	36 24       	eor	r3, r6
     56a:	36 06       	cpc	r3, r22
     56c:	0f 09       	sbc	r16, r15
     56e:	0f 06       	cpc	r0, r31
     570:	00 00       	nop
     572:	18 18       	sub	r1, r8
     574:	00 00       	nop
     576:	00 10       	cpse	r0, r0
     578:	10 00       	.word	0x0010	; ????
     57a:	30 40       	sbci	r19, 0x00	; 0
     57c:	ff 01       	movw	r30, r30
     57e:	01 00       	.word	0x0001	; ????
     580:	1f 01       	movw	r2, r30
     582:	01 1e       	adc	r0, r17
     584:	00 19       	sub	r16, r0
     586:	1d 17       	cp	r17, r29
     588:	12 00       	.word	0x0012	; ????
     58a:	3c 3c       	cpi	r19, 0xCC	; 204
     58c:	3c 3c       	cpi	r19, 0xCC	; 204
     58e:	00 00       	nop
     590:	00 00       	nop
	...

00000594 <__ctors_start>:
     594:	ea 08       	sbc	r14, r10

00000596 <__ctors_end>:
     596:	11 24       	eor	r1, r1
     598:	1f be       	out	0x3f, r1	; 63
     59a:	cf ef       	ldi	r28, 0xFF	; 255
     59c:	d0 e2       	ldi	r29, 0x20	; 32
     59e:	de bf       	out	0x3e, r29	; 62
     5a0:	cd bf       	out	0x3d, r28	; 61

000005a2 <__do_copy_data>:
     5a2:	12 e0       	ldi	r17, 0x02	; 2
     5a4:	a0 e0       	ldi	r26, 0x00	; 0
     5a6:	b1 e0       	ldi	r27, 0x01	; 1
     5a8:	e2 ef       	ldi	r30, 0xF2	; 242
     5aa:	f5 e2       	ldi	r31, 0x25	; 37
     5ac:	00 e0       	ldi	r16, 0x00	; 0
     5ae:	0b bf       	out	0x3b, r16	; 59
     5b0:	02 c0       	rjmp	.+4      	; 0x5b6 <__do_copy_data+0x14>
     5b2:	07 90       	elpm	r0, Z+
     5b4:	0d 92       	st	X+, r0
     5b6:	a2 32       	cpi	r26, 0x22	; 34
     5b8:	b1 07       	cpc	r27, r17
     5ba:	d9 f7       	brne	.-10     	; 0x5b2 <__do_copy_data+0x10>

000005bc <__do_clear_bss>:
     5bc:	26 e0       	ldi	r18, 0x06	; 6
     5be:	a2 e2       	ldi	r26, 0x22	; 34
     5c0:	b2 e0       	ldi	r27, 0x02	; 2
     5c2:	01 c0       	rjmp	.+2      	; 0x5c6 <.do_clear_bss_start>

000005c4 <.do_clear_bss_loop>:
     5c4:	1d 92       	st	X+, r1

000005c6 <.do_clear_bss_start>:
     5c6:	a4 34       	cpi	r26, 0x44	; 68
     5c8:	b2 07       	cpc	r27, r18
     5ca:	e1 f7       	brne	.-8      	; 0x5c4 <.do_clear_bss_loop>

000005cc <__do_global_ctors>:
     5cc:	12 e0       	ldi	r17, 0x02	; 2
     5ce:	cb ec       	ldi	r28, 0xCB	; 203
     5d0:	d2 e0       	ldi	r29, 0x02	; 2
     5d2:	04 c0       	rjmp	.+8      	; 0x5dc <__do_global_ctors+0x10>
     5d4:	21 97       	sbiw	r28, 0x01	; 1
     5d6:	fe 01       	movw	r30, r28
     5d8:	0e 94 13 10 	call	0x2026	; 0x2026 <__tablejump2__>
     5dc:	ca 3c       	cpi	r28, 0xCA	; 202
     5de:	d1 07       	cpc	r29, r17
     5e0:	c9 f7       	brne	.-14     	; 0x5d4 <__do_global_ctors+0x8>
     5e2:	d9 d4       	rcall	.+2482   	; 0xf96 <main>
     5e4:	0c 94 f7 12 	jmp	0x25ee	; 0x25ee <_exit>

000005e8 <__bad_interrupt>:
     5e8:	7e c2       	rjmp	.+1276   	; 0xae6 <__vector_default>

000005ea <_Z7initADCv>:
		myDisplay.drawString(0,0,"Calibrate");
		myDisplay.drawString(0,16,objectType);
		myDisplay.drawNumber(0,32,calibCount);
		myDisplay.show();
	}
}
     5ea:	10 ba       	out	0x10, r1	; 16
     5ec:	ea e7       	ldi	r30, 0x7A	; 122
     5ee:	f0 e0       	ldi	r31, 0x00	; 0
     5f0:	80 81       	ld	r24, Z
     5f2:	80 68       	ori	r24, 0x80	; 128
     5f4:	80 83       	st	Z, r24
     5f6:	80 81       	ld	r24, Z
     5f8:	87 60       	ori	r24, 0x07	; 7
     5fa:	80 83       	st	Z, r24
     5fc:	ec e7       	ldi	r30, 0x7C	; 124
     5fe:	f0 e0       	ldi	r31, 0x00	; 0
     600:	80 81       	ld	r24, Z
     602:	81 64       	ori	r24, 0x41	; 65
     604:	80 83       	st	Z, r24
     606:	08 95       	ret

00000608 <_Z17findLowestReadingPKc>:
     608:	cf 93       	push	r28
     60a:	df 93       	push	r29
     60c:	ec 01       	movw	r28, r24
     60e:	80 91 2a 02 	lds	r24, 0x022A	; 0x80022a <reflQueueCount>
     612:	88 30       	cpi	r24, 0x08	; 8
     614:	c0 f5       	brcc	.+112    	; 0x686 <_Z17findLowestReadingPKc+0x7e>
     616:	20 91 02 01 	lds	r18, 0x0102	; 0x800102 <lowestRefl>
     61a:	30 91 03 01 	lds	r19, 0x0103	; 0x800103 <lowestRefl+0x1>
     61e:	80 91 00 01 	lds	r24, 0x0100	; 0x800100 <__data_start>
     622:	90 91 01 01 	lds	r25, 0x0101	; 0x800101 <__data_start+0x1>
     626:	28 17       	cp	r18, r24
     628:	39 07       	cpc	r19, r25
     62a:	40 f4       	brcc	.+16     	; 0x63c <_Z17findLowestReadingPKc+0x34>
     62c:	80 91 02 01 	lds	r24, 0x0102	; 0x800102 <lowestRefl>
     630:	90 91 03 01 	lds	r25, 0x0103	; 0x800103 <lowestRefl+0x1>
     634:	90 93 01 01 	sts	0x0101, r25	; 0x800101 <__data_start+0x1>
     638:	80 93 00 01 	sts	0x0100, r24	; 0x800100 <__data_start>
     63c:	83 e3       	ldi	r24, 0x33	; 51
     63e:	92 e0       	ldi	r25, 0x02	; 2
     640:	1d d3       	rcall	.+1594   	; 0xc7c <_ZN11Framebuffer5clearEv>
     642:	2e e4       	ldi	r18, 0x4E	; 78
     644:	31 e0       	ldi	r19, 0x01	; 1
     646:	40 e0       	ldi	r20, 0x00	; 0
     648:	50 e0       	ldi	r21, 0x00	; 0
     64a:	60 e0       	ldi	r22, 0x00	; 0
     64c:	70 e0       	ldi	r23, 0x00	; 0
     64e:	83 e3       	ldi	r24, 0x33	; 51
     650:	92 e0       	ldi	r25, 0x02	; 2
     652:	bd d3       	rcall	.+1914   	; 0xdce <_ZN11Framebuffer10drawStringEiiPKc>
     654:	9e 01       	movw	r18, r28
     656:	40 e1       	ldi	r20, 0x10	; 16
     658:	50 e0       	ldi	r21, 0x00	; 0
     65a:	60 e0       	ldi	r22, 0x00	; 0
     65c:	70 e0       	ldi	r23, 0x00	; 0
     65e:	83 e3       	ldi	r24, 0x33	; 51
     660:	92 e0       	ldi	r25, 0x02	; 2
     662:	b5 d3       	rcall	.+1898   	; 0xdce <_ZN11Framebuffer10drawStringEiiPKc>
     664:	20 91 2a 02 	lds	r18, 0x022A	; 0x80022a <reflQueueCount>
     668:	30 e0       	ldi	r19, 0x00	; 0
     66a:	40 e2       	ldi	r20, 0x20	; 32
     66c:	50 e0       	ldi	r21, 0x00	; 0
     66e:	60 e0       	ldi	r22, 0x00	; 0
     670:	70 e0       	ldi	r23, 0x00	; 0
     672:	83 e3       	ldi	r24, 0x33	; 51
     674:	92 e0       	ldi	r25, 0x02	; 2
     676:	e1 d3       	rcall	.+1986   	; 0xe3a <_ZN11Framebuffer10drawNumberEiii>
     678:	83 e3       	ldi	r24, 0x33	; 51
     67a:	92 e0       	ldi	r25, 0x02	; 2
     67c:	10 d3       	rcall	.+1568   	; 0xc9e <_ZN11Framebuffer4showEv>
     67e:	80 91 2a 02 	lds	r24, 0x022A	; 0x80022a <reflQueueCount>
     682:	88 30       	cpi	r24, 0x08	; 8
     684:	40 f2       	brcs	.-112    	; 0x616 <_Z17findLowestReadingPKc+0xe>
     686:	10 92 2a 02 	sts	0x022A, r1	; 0x80022a <reflQueueCount>
     68a:	df 91       	pop	r29
     68c:	cf 91       	pop	r28
     68e:	08 95       	ret

00000690 <_Z12calibrateADCv>:


void calibrateADC(){
	
	myDisplay.clear();
     690:	83 e3       	ldi	r24, 0x33	; 51
     692:	92 e0       	ldi	r25, 0x02	; 2
     694:	f3 d2       	rcall	.+1510   	; 0xc7c <_ZN11Framebuffer5clearEv>
	myDisplay.drawString(0,0,"Calibrate");
     696:	2e e4       	ldi	r18, 0x4E	; 78
     698:	31 e0       	ldi	r19, 0x01	; 1
     69a:	40 e0       	ldi	r20, 0x00	; 0
     69c:	50 e0       	ldi	r21, 0x00	; 0
     69e:	60 e0       	ldi	r22, 0x00	; 0
     6a0:	70 e0       	ldi	r23, 0x00	; 0
     6a2:	83 e3       	ldi	r24, 0x33	; 51
     6a4:	92 e0       	ldi	r25, 0x02	; 2
     6a6:	93 d3       	rcall	.+1830   	; 0xdce <_ZN11Framebuffer10drawStringEiiPKc>
	myDisplay.drawString(0,16,"Black");
     6a8:	20 e1       	ldi	r18, 0x10	; 16
     6aa:	31 e0       	ldi	r19, 0x01	; 1
     6ac:	40 e1       	ldi	r20, 0x10	; 16
     6ae:	50 e0       	ldi	r21, 0x00	; 0
     6b0:	60 e0       	ldi	r22, 0x00	; 0
     6b2:	70 e0       	ldi	r23, 0x00	; 0
     6b4:	83 e3       	ldi	r24, 0x33	; 51
     6b6:	92 e0       	ldi	r25, 0x02	; 2
     6b8:	8a d3       	rcall	.+1812   	; 0xdce <_ZN11Framebuffer10drawStringEiiPKc>
	myDisplay.drawNumber(0,32,0);
     6ba:	20 e0       	ldi	r18, 0x00	; 0
     6bc:	30 e0       	ldi	r19, 0x00	; 0
     6be:	40 e2       	ldi	r20, 0x20	; 32
     6c0:	50 e0       	ldi	r21, 0x00	; 0
     6c2:	60 e0       	ldi	r22, 0x00	; 0
     6c4:	70 e0       	ldi	r23, 0x00	; 0
     6c6:	83 e3       	ldi	r24, 0x33	; 51
     6c8:	92 e0       	ldi	r25, 0x02	; 2
	myDisplay.show();
     6ca:	b7 d3       	rcall	.+1902   	; 0xe3a <_ZN11Framebuffer10drawNumberEiii>
     6cc:	83 e3       	ldi	r24, 0x33	; 51
     6ce:	92 e0       	ldi	r25, 0x02	; 2
	
	sei();
	motorForward();
     6d0:	e6 d2       	rcall	.+1484   	; 0xc9e <_ZN11Framebuffer4showEv>
     6d2:	78 94       	sei
	//Black -> White -> Steel -> Aluminum
	findLowestReading("Black");
     6d4:	0e 94 f3 0b 	call	0x17e6	; 0x17e6 <_Z12motorForwardv>
     6d8:	80 e1       	ldi	r24, 0x10	; 16
     6da:	91 e0       	ldi	r25, 0x01	; 1
	blackMinRef = calibReading - REFL_VALUE_BUFFER;
     6dc:	95 df       	rcall	.-214    	; 0x608 <_Z17findLowestReadingPKc>
     6de:	80 91 00 01 	lds	r24, 0x0100	; 0x800100 <__data_start>
     6e2:	90 91 01 01 	lds	r25, 0x0101	; 0x800101 <__data_start+0x1>
     6e6:	05 97       	sbiw	r24, 0x05	; 5
     6e8:	90 93 0b 01 	sts	0x010B, r25	; 0x80010b <blackMinRef+0x1>
	findLowestReading("White");
     6ec:	80 93 0a 01 	sts	0x010A, r24	; 0x80010a <blackMinRef>
     6f0:	86 e1       	ldi	r24, 0x16	; 22
     6f2:	91 e0       	ldi	r25, 0x01	; 1
	whiteMinRef = calibReading - REFL_VALUE_BUFFER;
     6f4:	89 df       	rcall	.-238    	; 0x608 <_Z17findLowestReadingPKc>
     6f6:	80 91 00 01 	lds	r24, 0x0100	; 0x800100 <__data_start>
     6fa:	90 91 01 01 	lds	r25, 0x0101	; 0x800101 <__data_start+0x1>
     6fe:	05 97       	sbiw	r24, 0x05	; 5
     700:	90 93 09 01 	sts	0x0109, r25	; 0x800109 <whiteMinRef+0x1>
	findLowestReading("Steel");
     704:	80 93 08 01 	sts	0x0108, r24	; 0x800108 <whiteMinRef>
     708:	8c e1       	ldi	r24, 0x1C	; 28
     70a:	91 e0       	ldi	r25, 0x01	; 1
	steelMinRef = calibReading - REFL_VALUE_BUFFER;
     70c:	7d df       	rcall	.-262    	; 0x608 <_Z17findLowestReadingPKc>
     70e:	80 91 00 01 	lds	r24, 0x0100	; 0x800100 <__data_start>
     712:	90 91 01 01 	lds	r25, 0x0101	; 0x800101 <__data_start+0x1>
     716:	05 97       	sbiw	r24, 0x05	; 5
     718:	90 93 07 01 	sts	0x0107, r25	; 0x800107 <steelMinRef+0x1>
	findLowestReading("Aluminum");
     71c:	80 93 06 01 	sts	0x0106, r24	; 0x800106 <steelMinRef>
     720:	82 e2       	ldi	r24, 0x22	; 34
     722:	91 e0       	ldi	r25, 0x01	; 1
	aluminumMinRef = calibReading - REFL_VALUE_BUFFER;
     724:	71 df       	rcall	.-286    	; 0x608 <_Z17findLowestReadingPKc>
     726:	80 91 00 01 	lds	r24, 0x0100	; 0x800100 <__data_start>
     72a:	90 91 01 01 	lds	r25, 0x0101	; 0x800101 <__data_start+0x1>
     72e:	05 97       	sbiw	r24, 0x05	; 5
     730:	90 93 05 01 	sts	0x0105, r25	; 0x800105 <aluminumMinRef+0x1>
		
	motorBrake();
     734:	80 93 04 01 	sts	0x0104, r24	; 0x800104 <aluminumMinRef>
	myDisplay.clear();
     738:	0e 94 f8 0b 	call	0x17f0	; 0x17f0 <_Z10motorBrakev>
     73c:	83 e3       	ldi	r24, 0x33	; 51
	myDisplay.drawString(0,0,"B:");
     73e:	92 e0       	ldi	r25, 0x02	; 2
     740:	9d d2       	rcall	.+1338   	; 0xc7c <_ZN11Framebuffer5clearEv>
     742:	2b e2       	ldi	r18, 0x2B	; 43
     744:	31 e0       	ldi	r19, 0x01	; 1
     746:	40 e0       	ldi	r20, 0x00	; 0
     748:	50 e0       	ldi	r21, 0x00	; 0
     74a:	60 e0       	ldi	r22, 0x00	; 0
     74c:	70 e0       	ldi	r23, 0x00	; 0
     74e:	83 e3       	ldi	r24, 0x33	; 51
	myDisplay.drawNumber(24,0,blackMinRef);
     750:	92 e0       	ldi	r25, 0x02	; 2
     752:	3d d3       	rcall	.+1658   	; 0xdce <_ZN11Framebuffer10drawStringEiiPKc>
     754:	20 91 0a 01 	lds	r18, 0x010A	; 0x80010a <blackMinRef>
     758:	30 91 0b 01 	lds	r19, 0x010B	; 0x80010b <blackMinRef+0x1>
     75c:	40 e0       	ldi	r20, 0x00	; 0
     75e:	50 e0       	ldi	r21, 0x00	; 0
     760:	68 e1       	ldi	r22, 0x18	; 24
     762:	70 e0       	ldi	r23, 0x00	; 0
     764:	83 e3       	ldi	r24, 0x33	; 51
	myDisplay.drawString(0,16,"W:");
     766:	92 e0       	ldi	r25, 0x02	; 2
     768:	68 d3       	rcall	.+1744   	; 0xe3a <_ZN11Framebuffer10drawNumberEiii>
     76a:	2e e2       	ldi	r18, 0x2E	; 46
     76c:	31 e0       	ldi	r19, 0x01	; 1
     76e:	40 e1       	ldi	r20, 0x10	; 16
     770:	50 e0       	ldi	r21, 0x00	; 0
     772:	60 e0       	ldi	r22, 0x00	; 0
     774:	70 e0       	ldi	r23, 0x00	; 0
     776:	83 e3       	ldi	r24, 0x33	; 51
	myDisplay.drawNumber(24,16,whiteMinRef);
     778:	92 e0       	ldi	r25, 0x02	; 2
     77a:	29 d3       	rcall	.+1618   	; 0xdce <_ZN11Framebuffer10drawStringEiiPKc>
     77c:	20 91 08 01 	lds	r18, 0x0108	; 0x800108 <whiteMinRef>
     780:	30 91 09 01 	lds	r19, 0x0109	; 0x800109 <whiteMinRef+0x1>
     784:	40 e1       	ldi	r20, 0x10	; 16
     786:	50 e0       	ldi	r21, 0x00	; 0
     788:	68 e1       	ldi	r22, 0x18	; 24
     78a:	70 e0       	ldi	r23, 0x00	; 0
     78c:	83 e3       	ldi	r24, 0x33	; 51
	myDisplay.drawString(0,32,"S:");
     78e:	92 e0       	ldi	r25, 0x02	; 2
     790:	54 d3       	rcall	.+1704   	; 0xe3a <_ZN11Framebuffer10drawNumberEiii>
     792:	21 e3       	ldi	r18, 0x31	; 49
     794:	31 e0       	ldi	r19, 0x01	; 1
     796:	40 e2       	ldi	r20, 0x20	; 32
     798:	50 e0       	ldi	r21, 0x00	; 0
     79a:	60 e0       	ldi	r22, 0x00	; 0
     79c:	70 e0       	ldi	r23, 0x00	; 0
     79e:	83 e3       	ldi	r24, 0x33	; 51
	myDisplay.drawNumber(24,32,steelMinRef);
     7a0:	92 e0       	ldi	r25, 0x02	; 2
     7a2:	15 d3       	rcall	.+1578   	; 0xdce <_ZN11Framebuffer10drawStringEiiPKc>
     7a4:	20 91 06 01 	lds	r18, 0x0106	; 0x800106 <steelMinRef>
     7a8:	30 91 07 01 	lds	r19, 0x0107	; 0x800107 <steelMinRef+0x1>
     7ac:	40 e2       	ldi	r20, 0x20	; 32
     7ae:	50 e0       	ldi	r21, 0x00	; 0
     7b0:	68 e1       	ldi	r22, 0x18	; 24
     7b2:	70 e0       	ldi	r23, 0x00	; 0
     7b4:	83 e3       	ldi	r24, 0x33	; 51
	myDisplay.drawString(0,48,"A:");
     7b6:	92 e0       	ldi	r25, 0x02	; 2
     7b8:	40 d3       	rcall	.+1664   	; 0xe3a <_ZN11Framebuffer10drawNumberEiii>
     7ba:	24 e3       	ldi	r18, 0x34	; 52
     7bc:	31 e0       	ldi	r19, 0x01	; 1
     7be:	40 e3       	ldi	r20, 0x30	; 48
     7c0:	50 e0       	ldi	r21, 0x00	; 0
     7c2:	60 e0       	ldi	r22, 0x00	; 0
     7c4:	70 e0       	ldi	r23, 0x00	; 0
	myDisplay.drawNumber(24,48,aluminumMinRef);
     7c6:	83 e3       	ldi	r24, 0x33	; 51
     7c8:	92 e0       	ldi	r25, 0x02	; 2
     7ca:	01 d3       	rcall	.+1538   	; 0xdce <_ZN11Framebuffer10drawStringEiiPKc>
     7cc:	20 91 04 01 	lds	r18, 0x0104	; 0x800104 <aluminumMinRef>
     7d0:	30 91 05 01 	lds	r19, 0x0105	; 0x800105 <aluminumMinRef+0x1>
     7d4:	40 e3       	ldi	r20, 0x30	; 48
     7d6:	50 e0       	ldi	r21, 0x00	; 0
     7d8:	68 e1       	ldi	r22, 0x18	; 24
     7da:	70 e0       	ldi	r23, 0x00	; 0
     7dc:	83 e3       	ldi	r24, 0x33	; 51
	myDisplay.show();
     7de:	92 e0       	ldi	r25, 0x02	; 2
     7e0:	2c d3       	rcall	.+1624   	; 0xe3a <_ZN11Framebuffer10drawNumberEiii>
     7e2:	83 e3       	ldi	r24, 0x33	; 51
     7e4:	92 e0       	ldi	r25, 0x02	; 2
	
	cli();
     7e6:	5b d2       	rcall	.+1206   	; 0xc9e <_ZN11Framebuffer4showEv>
     7e8:	f8 94       	cli
     7ea:	08 95       	ret

000007ec <__vector_29>:
	the lowest reflection reading is and save it in
	lowestRefl. Then it will start another ADC reading.
	Speed = ~0xa -> 309 readings per block.
	Speed = 0xff -> ~195 readings per block
*/
ISR(ADC_vect) {
     7ec:	1f 92       	push	r1
     7ee:	0f 92       	push	r0
     7f0:	0f b6       	in	r0, 0x3f	; 63
     7f2:	0f 92       	push	r0
     7f4:	11 24       	eor	r1, r1
     7f6:	0b b6       	in	r0, 0x3b	; 59
     7f8:	0f 92       	push	r0
     7fa:	2f 93       	push	r18
     7fc:	3f 93       	push	r19
     7fe:	8f 93       	push	r24
     800:	9f 93       	push	r25
     802:	ef 93       	push	r30
     804:	ff 93       	push	r31
// 	}
	
	//Simples method that will work great for sorting (as long as it is calibrated well)
	//Downside is that objects that have a reflectivity between the different kind of blocks 
	//won't be able to be detected.
	if(ADC < lowestRefl){
     806:	20 91 78 00 	lds	r18, 0x0078	; 0x800078 <__TEXT_REGION_LENGTH__+0x7e0078>
     80a:	30 91 79 00 	lds	r19, 0x0079	; 0x800079 <__TEXT_REGION_LENGTH__+0x7e0079>
     80e:	80 91 02 01 	lds	r24, 0x0102	; 0x800102 <lowestRefl>
     812:	90 91 03 01 	lds	r25, 0x0103	; 0x800103 <lowestRefl+0x1>
     816:	28 17       	cp	r18, r24
     818:	39 07       	cpc	r19, r25
     81a:	40 f4       	brcc	.+16     	; 0x82c <__vector_29+0x40>
		lowestRefl = ADC;
     81c:	80 91 78 00 	lds	r24, 0x0078	; 0x800078 <__TEXT_REGION_LENGTH__+0x7e0078>
     820:	90 91 79 00 	lds	r25, 0x0079	; 0x800079 <__TEXT_REGION_LENGTH__+0x7e0079>
     824:	90 93 03 01 	sts	0x0103, r25	; 0x800103 <lowestRefl+0x1>
     828:	80 93 02 01 	sts	0x0102, r24	; 0x800102 <lowestRefl>
	//so if it stops with the sensor near the edge of the blok the reading will be
	//pulled higher than the actual value.
	//lowestRefl = lowestRefl + (ADC - lowestRefl)/adcTotalCount; //adcAverage
	//adcTotalCount++;
	//Start another ADC conversion
	ADCSRA |= _BV(ADSC);
     82c:	ea e7       	ldi	r30, 0x7A	; 122
     82e:	f0 e0       	ldi	r31, 0x00	; 0
     830:	80 81       	ld	r24, Z
     832:	80 64       	ori	r24, 0x40	; 64
     834:	80 83       	st	Z, r24
     836:	ff 91       	pop	r31
     838:	ef 91       	pop	r30
     83a:	9f 91       	pop	r25
     83c:	8f 91       	pop	r24
     83e:	3f 91       	pop	r19
     840:	2f 91       	pop	r18
     842:	0f 90       	pop	r0
     844:	0b be       	out	0x3b, r0	; 59
     846:	0f 90       	pop	r0
     848:	0f be       	out	0x3f, r0	; 63
     84a:	0f 90       	pop	r0
     84c:	1f 90       	pop	r1
     84e:	18 95       	reti

00000850 <_Z10initExtIntv>:
volatile char blockReady = 0;
volatile char stepperRdy = 1; //*** turn this into extern when adding stepper

void initExtInt(void){
	//External interrupts on pin 2,3
	DDRD &= 0b11110011; 
     850:	8a b1       	in	r24, 0x0a	; 10
     852:	83 7f       	andi	r24, 0xF3	; 243
     854:	8a b9       	out	0x0a, r24	; 10
	
	//Turn off interrupt while configuring
	EIMSK = 0;
     856:	1d ba       	out	0x1d, r1	; 29
	
	//Any edge interrupt on PD2 (EXT INT2)
	//Falling edge interrupt on PD3 (EXT INT3)
	EICRA |= 0b10010000;
     858:	e9 e6       	ldi	r30, 0x69	; 105
     85a:	f0 e0       	ldi	r31, 0x00	; 0
     85c:	80 81       	ld	r24, Z
     85e:	80 69       	ori	r24, 0x90	; 144
     860:	80 83       	st	Z, r24
	
	//Turn on External Interrupt 2 and 3
	EIMSK = 0b1100;
     862:	8c e0       	ldi	r24, 0x0C	; 12
     864:	8d bb       	out	0x1d, r24	; 29
     866:	08 95       	ret

00000868 <__vector_3>:
	reading was. Add item to front of FIFO queue.
	
	TODO: Add a low range for each classification to make it
	more rubust.
*/
ISR(INT2_vect){
     868:	1f 92       	push	r1
     86a:	0f 92       	push	r0
     86c:	0f b6       	in	r0, 0x3f	; 63
     86e:	0f 92       	push	r0
     870:	11 24       	eor	r1, r1
     872:	0b b6       	in	r0, 0x3b	; 59
     874:	0f 92       	push	r0
     876:	2f 93       	push	r18
     878:	3f 93       	push	r19
     87a:	4f 93       	push	r20
     87c:	5f 93       	push	r21
     87e:	6f 93       	push	r22
     880:	7f 93       	push	r23
     882:	8f 93       	push	r24
     884:	9f 93       	push	r25
     886:	af 93       	push	r26
     888:	bf 93       	push	r27
     88a:	ef 93       	push	r30
     88c:	ff 93       	push	r31
	//////////"Debounce" *** seems to work fine with 1 ms delay
	mTimer(5);
     88e:	85 e0       	ldi	r24, 0x05	; 5
     890:	90 e0       	ldi	r25, 0x00	; 0
     892:	0e 94 f5 0f 	call	0x1fea	; 0x1fea <_Z6mTimeri>
	//////////
	
	//if(REF_SENSOR_PORT & REF_SENSOR_PIN){
	if(PIND & 0x4){
     896:	4a 9b       	sbis	0x09, 2	; 9
     898:	0f c0       	rjmp	.+30     	; 0x8b8 <__vector_3+0x50>
		//////////START ADC
		lowestRefl = 1023;
     89a:	8f ef       	ldi	r24, 0xFF	; 255
     89c:	93 e0       	ldi	r25, 0x03	; 3
     89e:	90 93 03 01 	sts	0x0103, r25	; 0x800103 <lowestRefl+0x1>
     8a2:	80 93 02 01 	sts	0x0102, r24	; 0x800102 <lowestRefl>
		//adcTotalCount = 1; //***
		//adcAverage = 0;
		//runningSum
		//Enable ADC interrupt
		ADCSRA |= _BV(ADIE);
     8a6:	ea e7       	ldi	r30, 0x7A	; 122
     8a8:	f0 e0       	ldi	r31, 0x00	; 0
     8aa:	80 81       	ld	r24, Z
     8ac:	88 60       	ori	r24, 0x08	; 8
     8ae:	80 83       	st	Z, r24
		//Start ADC conversion
		ADCSRA |= _BV(ADSC);
     8b0:	80 81       	ld	r24, Z
     8b2:	80 64       	ori	r24, 0x40	; 64
     8b4:	80 83       	st	Z, r24
     8b6:	6a c0       	rjmp	.+212    	; 0x98c <__vector_3+0x124>
		
	}
	else if((PIND & 0x4) == 0){
     8b8:	4a 99       	sbic	0x09, 2	; 9
     8ba:	68 c0       	rjmp	.+208    	; 0x98c <__vector_3+0x124>
		char unsigned itemValue = 0;
		//////////STOP ADC
		//Disable ADC interrupt
		ADCSRA &= ~_BV(ADIE);
     8bc:	ea e7       	ldi	r30, 0x7A	; 122
     8be:	f0 e0       	ldi	r31, 0x00	; 0
     8c0:	80 81       	ld	r24, Z
     8c2:	87 7f       	andi	r24, 0xF7	; 247
     8c4:	80 83       	st	Z, r24
		//Cancel any pending ADC conversions
		ADCSRA &= ~_BV(ADSC);
     8c6:	80 81       	ld	r24, Z
     8c8:	8f 7b       	andi	r24, 0xBF	; 191
     8ca:	80 83       	st	Z, r24

		//////////CLASSIFY BLOCK
		if(lowestRefl > blackMinRef){
     8cc:	20 91 02 01 	lds	r18, 0x0102	; 0x800102 <lowestRefl>
     8d0:	30 91 03 01 	lds	r19, 0x0103	; 0x800103 <lowestRefl+0x1>
     8d4:	80 91 0a 01 	lds	r24, 0x010A	; 0x80010a <blackMinRef>
     8d8:	90 91 0b 01 	lds	r25, 0x010B	; 0x80010b <blackMinRef+0x1>
     8dc:	82 17       	cp	r24, r18
     8de:	93 07       	cpc	r25, r19
     8e0:	18 f1       	brcs	.+70     	; 0x928 <__vector_3+0xc0>
			itemValue = BLACK;
		}
		else if(lowestRefl > whiteMinRef){
     8e2:	20 91 02 01 	lds	r18, 0x0102	; 0x800102 <lowestRefl>
     8e6:	30 91 03 01 	lds	r19, 0x0103	; 0x800103 <lowestRefl+0x1>
     8ea:	80 91 08 01 	lds	r24, 0x0108	; 0x800108 <whiteMinRef>
     8ee:	90 91 09 01 	lds	r25, 0x0109	; 0x800109 <whiteMinRef+0x1>
     8f2:	82 17       	cp	r24, r18
     8f4:	93 07       	cpc	r25, r19
     8f6:	d0 f0       	brcs	.+52     	; 0x92c <__vector_3+0xc4>
			itemValue = WHITE;
		}
		else if (lowestRefl > steelMinRef){
     8f8:	20 91 02 01 	lds	r18, 0x0102	; 0x800102 <lowestRefl>
     8fc:	30 91 03 01 	lds	r19, 0x0103	; 0x800103 <lowestRefl+0x1>
     900:	80 91 06 01 	lds	r24, 0x0106	; 0x800106 <steelMinRef>
     904:	90 91 07 01 	lds	r25, 0x0107	; 0x800107 <steelMinRef+0x1>
     908:	82 17       	cp	r24, r18
     90a:	93 07       	cpc	r25, r19
     90c:	88 f0       	brcs	.+34     	; 0x930 <__vector_3+0xc8>
			itemValue = STEEL;
		}
		else if(lowestRefl > aluminumMinRef){
     90e:	20 91 02 01 	lds	r18, 0x0102	; 0x800102 <lowestRefl>
     912:	30 91 03 01 	lds	r19, 0x0103	; 0x800103 <lowestRefl+0x1>
     916:	80 91 04 01 	lds	r24, 0x0104	; 0x800104 <aluminumMinRef>
     91a:	90 91 05 01 	lds	r25, 0x0105	; 0x800105 <aluminumMinRef+0x1>
     91e:	82 17       	cp	r24, r18
     920:	93 07       	cpc	r25, r19
     922:	40 f0       	brcs	.+16     	; 0x934 <__vector_3+0xcc>
			itemValue = ALUMINUM;
		}
		else{
			itemValue = UNKNOWN;
     924:	94 e0       	ldi	r25, 0x04	; 4
     926:	07 c0       	rjmp	.+14     	; 0x936 <__vector_3+0xce>
		//Cancel any pending ADC conversions
		ADCSRA &= ~_BV(ADSC);

		//////////CLASSIFY BLOCK
		if(lowestRefl > blackMinRef){
			itemValue = BLACK;
     928:	90 e0       	ldi	r25, 0x00	; 0
     92a:	05 c0       	rjmp	.+10     	; 0x936 <__vector_3+0xce>
		}
		else if(lowestRefl > whiteMinRef){
			itemValue = WHITE;
     92c:	91 e0       	ldi	r25, 0x01	; 1
     92e:	03 c0       	rjmp	.+6      	; 0x936 <__vector_3+0xce>
		}
		else if (lowestRefl > steelMinRef){
			itemValue = STEEL;
     930:	92 e0       	ldi	r25, 0x02	; 2
     932:	01 c0       	rjmp	.+2      	; 0x936 <__vector_3+0xce>
		}
		else if(lowestRefl > aluminumMinRef){
			itemValue = ALUMINUM;
     934:	93 e0       	ldi	r25, 0x03	; 3
			itemValue = UNKNOWN;
		}

		//////////ADD BLOCK TO QUEUE
		//Check to make sure we aren't passed max
		if(reflQueueCount > 7){ 
     936:	80 91 2a 02 	lds	r24, 0x022A	; 0x80022a <reflQueueCount>
     93a:	88 30       	cpi	r24, 0x08	; 8
     93c:	18 f0       	brcs	.+6      	; 0x944 <__vector_3+0xdc>
			PORTC = 0xff;
     93e:	8f ef       	ldi	r24, 0xFF	; 255
     940:	88 b9       	out	0x08, r24	; 8
     942:	24 c0       	rjmp	.+72     	; 0x98c <__vector_3+0x124>
		}
		else if(reflQueueCount == 0){
     944:	80 91 2a 02 	lds	r24, 0x022A	; 0x80022a <reflQueueCount>
     948:	81 11       	cpse	r24, r1
     94a:	0f c0       	rjmp	.+30     	; 0x96a <__vector_3+0x102>
			reflQueueCount++;
     94c:	80 91 2a 02 	lds	r24, 0x022A	; 0x80022a <reflQueueCount>
     950:	8f 5f       	subi	r24, 0xFF	; 255
     952:	80 93 2a 02 	sts	0x022A, r24	; 0x80022a <reflQueueCount>
			reflQueue[backOfQueue] = itemValue;
     956:	e0 91 28 02 	lds	r30, 0x0228	; 0x800228 <backOfQueue>
     95a:	f0 e0       	ldi	r31, 0x00	; 0
     95c:	e5 5d       	subi	r30, 0xD5	; 213
     95e:	fd 4f       	sbci	r31, 0xFD	; 253
     960:	90 83       	st	Z, r25
			reflQueueChange = 1;
     962:	81 e0       	ldi	r24, 0x01	; 1
     964:	80 93 27 02 	sts	0x0227, r24	; 0x800227 <reflQueueChange>
     968:	11 c0       	rjmp	.+34     	; 0x98c <__vector_3+0x124>
		}
		else{
			reflQueueCount++;
     96a:	80 91 2a 02 	lds	r24, 0x022A	; 0x80022a <reflQueueCount>
     96e:	8f 5f       	subi	r24, 0xFF	; 255
     970:	80 93 2a 02 	sts	0x022A, r24	; 0x80022a <reflQueueCount>
			backOfQueue = (backOfQueue + 1) & 7;
     974:	80 91 28 02 	lds	r24, 0x0228	; 0x800228 <backOfQueue>
     978:	8f 5f       	subi	r24, 0xFF	; 255
     97a:	87 70       	andi	r24, 0x07	; 7
     97c:	80 93 28 02 	sts	0x0228, r24	; 0x800228 <backOfQueue>
			reflQueue[backOfQueue] = itemValue;
     980:	e0 91 28 02 	lds	r30, 0x0228	; 0x800228 <backOfQueue>
     984:	f0 e0       	ldi	r31, 0x00	; 0
     986:	e5 5d       	subi	r30, 0xD5	; 213
     988:	fd 4f       	sbci	r31, 0xFD	; 253
     98a:	90 83       	st	Z, r25
 		}	
		//Error checking for < 0? ***
		
	}
	//Clear interrupt flag
	EIFR = 0x4; 
     98c:	84 e0       	ldi	r24, 0x04	; 4
     98e:	8c bb       	out	0x1c, r24	; 28
	
}
     990:	ff 91       	pop	r31
     992:	ef 91       	pop	r30
     994:	bf 91       	pop	r27
     996:	af 91       	pop	r26
     998:	9f 91       	pop	r25
     99a:	8f 91       	pop	r24
     99c:	7f 91       	pop	r23
     99e:	6f 91       	pop	r22
     9a0:	5f 91       	pop	r21
     9a2:	4f 91       	pop	r20
     9a4:	3f 91       	pop	r19
     9a6:	2f 91       	pop	r18
     9a8:	0f 90       	pop	r0
     9aa:	0b be       	out	0x3b, r0	; 59
     9ac:	0f 90       	pop	r0
     9ae:	0f be       	out	0x3f, r0	; 63
     9b0:	0f 90       	pop	r0
     9b2:	1f 90       	pop	r1
     9b4:	18 95       	reti

000009b6 <__vector_4>:


ISR(INT3_vect){
     9b6:	1f 92       	push	r1
     9b8:	0f 92       	push	r0
     9ba:	0f b6       	in	r0, 0x3f	; 63
     9bc:	0f 92       	push	r0
     9be:	11 24       	eor	r1, r1
     9c0:	0b b6       	in	r0, 0x3b	; 59
     9c2:	0f 92       	push	r0
     9c4:	2f 93       	push	r18
     9c6:	3f 93       	push	r19
     9c8:	4f 93       	push	r20
     9ca:	5f 93       	push	r21
     9cc:	6f 93       	push	r22
     9ce:	7f 93       	push	r23
     9d0:	8f 93       	push	r24
     9d2:	9f 93       	push	r25
     9d4:	af 93       	push	r26
     9d6:	bf 93       	push	r27
     9d8:	ef 93       	push	r30
     9da:	ff 93       	push	r31
	char nextItem = 0;
	//////////"Debounce" *** seems to work fine with 1 ms delay
	mTimer(5);
     9dc:	85 e0       	ldi	r24, 0x05	; 5
     9de:	90 e0       	ldi	r25, 0x00	; 0
     9e0:	0e 94 f5 0f 	call	0x1fea	; 0x1fea <_Z6mTimeri>

	if((PIND & 0x8) == 0){
     9e4:	4b 99       	sbic	0x09, 3	; 9
     9e6:	6a c0       	rjmp	.+212    	; 0xabc <__vector_4+0x106>
		if(stepperReady){
     9e8:	80 91 3e 06 	lds	r24, 0x063E	; 0x80063e <stepperReady>
     9ec:	88 23       	and	r24, r24
     9ee:	09 f4       	brne	.+2      	; 0x9f2 <__vector_4+0x3c>
     9f0:	5f c0       	rjmp	.+190    	; 0xab0 <__vector_4+0xfa>
			//////////PUT BLOCK IN BIN (leave motor on) 
			
			//////////COUNT NUMBER OF EACH SORTED
			if(reflQueue[frontOfQueue] == BLACK){
     9f2:	e0 91 29 02 	lds	r30, 0x0229	; 0x800229 <frontOfQueue>
     9f6:	f0 e0       	ldi	r31, 0x00	; 0
     9f8:	e5 5d       	subi	r30, 0xD5	; 213
     9fa:	fd 4f       	sbci	r31, 0xFD	; 253
     9fc:	80 81       	ld	r24, Z
     9fe:	81 11       	cpse	r24, r1
     a00:	06 c0       	rjmp	.+12     	; 0xa0e <__vector_4+0x58>
				blackCount++;
     a02:	80 91 26 02 	lds	r24, 0x0226	; 0x800226 <blackCount>
     a06:	8f 5f       	subi	r24, 0xFF	; 255
     a08:	80 93 26 02 	sts	0x0226, r24	; 0x800226 <blackCount>
     a0c:	29 c0       	rjmp	.+82     	; 0xa60 <__vector_4+0xaa>
			}
			else if(reflQueue[frontOfQueue] == WHITE){
     a0e:	e0 91 29 02 	lds	r30, 0x0229	; 0x800229 <frontOfQueue>
     a12:	f0 e0       	ldi	r31, 0x00	; 0
     a14:	e5 5d       	subi	r30, 0xD5	; 213
     a16:	fd 4f       	sbci	r31, 0xFD	; 253
     a18:	80 81       	ld	r24, Z
     a1a:	81 30       	cpi	r24, 0x01	; 1
     a1c:	31 f4       	brne	.+12     	; 0xa2a <__vector_4+0x74>
				whiteCount++;
     a1e:	80 91 25 02 	lds	r24, 0x0225	; 0x800225 <whiteCount>
     a22:	8f 5f       	subi	r24, 0xFF	; 255
     a24:	80 93 25 02 	sts	0x0225, r24	; 0x800225 <whiteCount>
     a28:	1b c0       	rjmp	.+54     	; 0xa60 <__vector_4+0xaa>
			}
			else if(reflQueue[frontOfQueue] == STEEL){
     a2a:	e0 91 29 02 	lds	r30, 0x0229	; 0x800229 <frontOfQueue>
     a2e:	f0 e0       	ldi	r31, 0x00	; 0
     a30:	e5 5d       	subi	r30, 0xD5	; 213
     a32:	fd 4f       	sbci	r31, 0xFD	; 253
     a34:	80 81       	ld	r24, Z
     a36:	82 30       	cpi	r24, 0x02	; 2
     a38:	31 f4       	brne	.+12     	; 0xa46 <__vector_4+0x90>
				steelCount++;
     a3a:	80 91 24 02 	lds	r24, 0x0224	; 0x800224 <steelCount>
     a3e:	8f 5f       	subi	r24, 0xFF	; 255
     a40:	80 93 24 02 	sts	0x0224, r24	; 0x800224 <steelCount>
     a44:	0d c0       	rjmp	.+26     	; 0xa60 <__vector_4+0xaa>
			}
			else if(reflQueue[frontOfQueue] == ALUMINUM){
     a46:	e0 91 29 02 	lds	r30, 0x0229	; 0x800229 <frontOfQueue>
     a4a:	f0 e0       	ldi	r31, 0x00	; 0
     a4c:	e5 5d       	subi	r30, 0xD5	; 213
     a4e:	fd 4f       	sbci	r31, 0xFD	; 253
     a50:	80 81       	ld	r24, Z
     a52:	83 30       	cpi	r24, 0x03	; 3
     a54:	29 f4       	brne	.+10     	; 0xa60 <__vector_4+0xaa>
				aluminumCount++;
     a56:	80 91 23 02 	lds	r24, 0x0223	; 0x800223 <aluminumCount>
     a5a:	8f 5f       	subi	r24, 0xFF	; 255
     a5c:	80 93 23 02 	sts	0x0223, r24	; 0x800223 <aluminumCount>
			}

			//////////DEQUEUE BLOCK
			if(reflQueueCount < 2){
     a60:	80 91 2a 02 	lds	r24, 0x022A	; 0x80022a <reflQueueCount>
     a64:	82 30       	cpi	r24, 0x02	; 2
     a66:	18 f4       	brcc	.+6      	; 0xa6e <__vector_4+0xb8>
				reflQueueCount = 0;
     a68:	10 92 2a 02 	sts	0x022A, r1	; 0x80022a <reflQueueCount>
     a6c:	27 c0       	rjmp	.+78     	; 0xabc <__vector_4+0x106>
			}
			else{
				nextItem = (frontOfQueue+1) & 7; //& 7 implements a rotating array position
     a6e:	80 91 29 02 	lds	r24, 0x0229	; 0x800229 <frontOfQueue>
     a72:	8f 5f       	subi	r24, 0xFF	; 255
     a74:	87 70       	andi	r24, 0x07	; 7
				if(reflQueue[frontOfQueue] != reflQueue[nextItem]){
     a76:	e0 91 29 02 	lds	r30, 0x0229	; 0x800229 <frontOfQueue>
     a7a:	f0 e0       	ldi	r31, 0x00	; 0
     a7c:	e5 5d       	subi	r30, 0xD5	; 213
     a7e:	fd 4f       	sbci	r31, 0xFD	; 253
     a80:	20 81       	ld	r18, Z
     a82:	e8 2f       	mov	r30, r24
     a84:	f0 e0       	ldi	r31, 0x00	; 0
     a86:	e5 5d       	subi	r30, 0xD5	; 213
     a88:	fd 4f       	sbci	r31, 0xFD	; 253
     a8a:	90 81       	ld	r25, Z
     a8c:	29 17       	cp	r18, r25
     a8e:	29 f0       	breq	.+10     	; 0xa9a <__vector_4+0xe4>
					delayStepper = 1;
     a90:	91 e0       	ldi	r25, 0x01	; 1
     a92:	90 93 3d 06 	sts	0x063D, r25	; 0x80063d <delayStepper>
					stepperReady = 0;
     a96:	10 92 3e 06 	sts	0x063E, r1	; 0x80063e <stepperReady>
				}
				frontOfQueue = nextItem; 
     a9a:	80 93 29 02 	sts	0x0229, r24	; 0x800229 <frontOfQueue>
				reflQueueCount--;
     a9e:	80 91 2a 02 	lds	r24, 0x022A	; 0x80022a <reflQueueCount>
     aa2:	81 50       	subi	r24, 0x01	; 1
     aa4:	80 93 2a 02 	sts	0x022A, r24	; 0x80022a <reflQueueCount>
				reflQueueChange = 1;
     aa8:	81 e0       	ldi	r24, 0x01	; 1
     aaa:	80 93 27 02 	sts	0x0227, r24	; 0x800227 <reflQueueChange>
     aae:	06 c0       	rjmp	.+12     	; 0xabc <__vector_4+0x106>
			}
		}
		else{
			//Motor brake
			MOTOR_PORT = (MOTOR_PORT & ~MOTOR_PINS) | MOTOR_BRAKE;
     ab0:	82 b1       	in	r24, 0x02	; 2
     ab2:	8f 73       	andi	r24, 0x3F	; 63
     ab4:	82 b9       	out	0x02, r24	; 2
			blockReady = 1;
     ab6:	81 e0       	ldi	r24, 0x01	; 1
     ab8:	80 93 22 02 	sts	0x0222, r24	; 0x800222 <__data_end>
		}
	}
	//Clear interrupt flag (else ISR runs twice)
	EIFR = 0x8; 
     abc:	88 e0       	ldi	r24, 0x08	; 8
     abe:	8c bb       	out	0x1c, r24	; 28
}
     ac0:	ff 91       	pop	r31
     ac2:	ef 91       	pop	r30
     ac4:	bf 91       	pop	r27
     ac6:	af 91       	pop	r26
     ac8:	9f 91       	pop	r25
     aca:	8f 91       	pop	r24
     acc:	7f 91       	pop	r23
     ace:	6f 91       	pop	r22
     ad0:	5f 91       	pop	r21
     ad2:	4f 91       	pop	r20
     ad4:	3f 91       	pop	r19
     ad6:	2f 91       	pop	r18
     ad8:	0f 90       	pop	r0
     ada:	0b be       	out	0x3b, r0	; 59
     adc:	0f 90       	pop	r0
     ade:	0f be       	out	0x3f, r0	; 63
     ae0:	0f 90       	pop	r0
     ae2:	1f 90       	pop	r1
     ae4:	18 95       	reti

00000ae6 <__vector_default>:

ISR(BADISR_vect){
     ae6:	1f 92       	push	r1
     ae8:	0f 92       	push	r0
     aea:	0f b6       	in	r0, 0x3f	; 63
     aec:	0f 92       	push	r0
     aee:	11 24       	eor	r1, r1
     af0:	8f 93       	push	r24
	PORTC = 0xaa;
     af2:	8a ea       	ldi	r24, 0xAA	; 170
     af4:	88 b9       	out	0x08, r24	; 8
     af6:	8f 91       	pop	r24
     af8:	0f 90       	pop	r0
     afa:	0f be       	out	0x3f, r0	; 63
     afc:	0f 90       	pop	r0
     afe:	1f 90       	pop	r1
     b00:	18 95       	reti

00000b02 <_ZN11Framebuffer9drawPixelEhh>:
        this->buffer[buffer_location] = 0x00;
    }
}

void Framebuffer::invert(uint8_t status) {
    this->oled.invert(status);
     b02:	66 23       	and	r22, r22
     b04:	d4 f0       	brlt	.+52     	; 0xb3a <_ZN11Framebuffer9drawPixelEhh+0x38>
     b06:	40 34       	cpi	r20, 0x40	; 64
     b08:	c0 f4       	brcc	.+48     	; 0xb3a <_ZN11Framebuffer9drawPixelEhh+0x38>
     b0a:	24 2f       	mov	r18, r20
     b0c:	26 95       	lsr	r18
     b0e:	26 95       	lsr	r18
     b10:	26 95       	lsr	r18
     b12:	70 e0       	ldi	r23, 0x00	; 0
     b14:	30 e8       	ldi	r19, 0x80	; 128
     b16:	23 9f       	mul	r18, r19
     b18:	60 0d       	add	r22, r0
     b1a:	71 1d       	adc	r23, r1
     b1c:	11 24       	eor	r1, r1
     b1e:	fc 01       	movw	r30, r24
     b20:	e6 0f       	add	r30, r22
     b22:	f7 1f       	adc	r31, r23
     b24:	47 70       	andi	r20, 0x07	; 7
     b26:	81 e0       	ldi	r24, 0x01	; 1
     b28:	90 e0       	ldi	r25, 0x00	; 0
     b2a:	02 c0       	rjmp	.+4      	; 0xb30 <_ZN11Framebuffer9drawPixelEhh+0x2e>
     b2c:	88 0f       	add	r24, r24
     b2e:	99 1f       	adc	r25, r25
     b30:	4a 95       	dec	r20
     b32:	e2 f7       	brpl	.-8      	; 0xb2c <_ZN11Framebuffer9drawPixelEhh+0x2a>
     b34:	90 81       	ld	r25, Z
     b36:	89 2b       	or	r24, r25
     b38:	80 83       	st	Z, r24
     b3a:	08 95       	ret

00000b3c <_ZN11Framebuffer9drawVLineEhhh>:
     b3c:	ff 92       	push	r15
     b3e:	0f 93       	push	r16
     b40:	1f 93       	push	r17
     b42:	cf 93       	push	r28
     b44:	df 93       	push	r29
     b46:	22 23       	and	r18, r18
     b48:	61 f0       	breq	.+24     	; 0xb62 <_ZN11Framebuffer9drawVLineEhhh+0x26>
     b4a:	c4 2f       	mov	r28, r20
     b4c:	f6 2e       	mov	r15, r22
     b4e:	8c 01       	movw	r16, r24
     b50:	d2 2f       	mov	r29, r18
     b52:	d4 0f       	add	r29, r20
     b54:	4c 2f       	mov	r20, r28
     b56:	6f 2d       	mov	r22, r15
     b58:	c8 01       	movw	r24, r16
     b5a:	d3 df       	rcall	.-90     	; 0xb02 <_ZN11Framebuffer9drawPixelEhh>
     b5c:	cf 5f       	subi	r28, 0xFF	; 255
     b5e:	cd 13       	cpse	r28, r29
     b60:	f9 cf       	rjmp	.-14     	; 0xb54 <_ZN11Framebuffer9drawVLineEhhh+0x18>
     b62:	df 91       	pop	r29
     b64:	cf 91       	pop	r28
     b66:	1f 91       	pop	r17
     b68:	0f 91       	pop	r16
     b6a:	ff 90       	pop	r15
     b6c:	08 95       	ret

00000b6e <_ZN11Framebuffer9drawHLineEhhh>:
     b6e:	ff 92       	push	r15
     b70:	0f 93       	push	r16
     b72:	1f 93       	push	r17
     b74:	cf 93       	push	r28
     b76:	df 93       	push	r29
     b78:	22 23       	and	r18, r18
     b7a:	61 f0       	breq	.+24     	; 0xb94 <_ZN11Framebuffer9drawHLineEhhh+0x26>
     b7c:	f4 2e       	mov	r15, r20
     b7e:	c6 2f       	mov	r28, r22
     b80:	8c 01       	movw	r16, r24
     b82:	d2 2f       	mov	r29, r18
     b84:	d6 0f       	add	r29, r22
     b86:	4f 2d       	mov	r20, r15
     b88:	6c 2f       	mov	r22, r28
     b8a:	c8 01       	movw	r24, r16
     b8c:	ba df       	rcall	.-140    	; 0xb02 <_ZN11Framebuffer9drawPixelEhh>
     b8e:	cf 5f       	subi	r28, 0xFF	; 255
     b90:	cd 13       	cpse	r28, r29
     b92:	f9 cf       	rjmp	.-14     	; 0xb86 <_ZN11Framebuffer9drawHLineEhhh+0x18>
     b94:	df 91       	pop	r29
     b96:	cf 91       	pop	r28
     b98:	1f 91       	pop	r17
     b9a:	0f 91       	pop	r16
     b9c:	ff 90       	pop	r15
     b9e:	08 95       	ret

00000ba0 <_ZN11Framebuffer13drawRectangleEhhhh>:
     ba0:	cf 92       	push	r12
     ba2:	df 92       	push	r13
     ba4:	ef 92       	push	r14
     ba6:	ff 92       	push	r15
     ba8:	0f 93       	push	r16
     baa:	1f 93       	push	r17
     bac:	cf 93       	push	r28
     bae:	df 93       	push	r29
     bb0:	ec 01       	movw	r28, r24
     bb2:	f6 2e       	mov	r15, r22
     bb4:	14 2f       	mov	r17, r20
     bb6:	d2 2e       	mov	r13, r18
     bb8:	e2 2e       	mov	r14, r18
     bba:	e6 1a       	sub	r14, r22
     bbc:	e3 94       	inc	r14
     bbe:	c0 2e       	mov	r12, r16
     bc0:	c4 1a       	sub	r12, r20
     bc2:	2e 2d       	mov	r18, r14
     bc4:	d4 df       	rcall	.-88     	; 0xb6e <_ZN11Framebuffer9drawHLineEhhh>
     bc6:	2e 2d       	mov	r18, r14
     bc8:	40 2f       	mov	r20, r16
     bca:	6f 2d       	mov	r22, r15
     bcc:	ce 01       	movw	r24, r28
     bce:	cf df       	rcall	.-98     	; 0xb6e <_ZN11Framebuffer9drawHLineEhhh>
     bd0:	2c 2d       	mov	r18, r12
     bd2:	41 2f       	mov	r20, r17
     bd4:	6f 2d       	mov	r22, r15
     bd6:	ce 01       	movw	r24, r28
     bd8:	b1 df       	rcall	.-158    	; 0xb3c <_ZN11Framebuffer9drawVLineEhhh>
     bda:	2c 2d       	mov	r18, r12
     bdc:	41 2f       	mov	r20, r17
     bde:	6d 2d       	mov	r22, r13
     be0:	ce 01       	movw	r24, r28
     be2:	ac df       	rcall	.-168    	; 0xb3c <_ZN11Framebuffer9drawVLineEhhh>
     be4:	df 91       	pop	r29
     be6:	cf 91       	pop	r28
     be8:	1f 91       	pop	r17
     bea:	0f 91       	pop	r16
     bec:	ff 90       	pop	r15
     bee:	ef 90       	pop	r14
     bf0:	df 90       	pop	r13
     bf2:	cf 90       	pop	r12
     bf4:	08 95       	ret

00000bf6 <_ZN11Framebuffer13drawRectangleEhhhhh>:
     bf6:	6f 92       	push	r6
     bf8:	7f 92       	push	r7
     bfa:	8f 92       	push	r8
     bfc:	9f 92       	push	r9
     bfe:	af 92       	push	r10
     c00:	bf 92       	push	r11
     c02:	cf 92       	push	r12
     c04:	df 92       	push	r13
     c06:	ef 92       	push	r14
     c08:	ff 92       	push	r15
     c0a:	0f 93       	push	r16
     c0c:	1f 93       	push	r17
     c0e:	cf 93       	push	r28
     c10:	df 93       	push	r29
     c12:	6c 01       	movw	r12, r24
     c14:	64 2e       	mov	r6, r20
     c16:	e1 10       	cpse	r14, r1
     c18:	02 c0       	rjmp	.+4      	; 0xc1e <_ZN11Framebuffer13drawRectangleEhhhhh+0x28>
     c1a:	c2 df       	rcall	.-124    	; 0xba0 <_ZN11Framebuffer13drawRectangleEhhhh>
     c1c:	20 c0       	rjmp	.+64     	; 0xc5e <_ZN11Framebuffer13drawRectangleEhhhhh+0x68>
     c1e:	04 1b       	sub	r16, r20
     c20:	2f 5f       	subi	r18, 0xFF	; 255
     c22:	26 1b       	sub	r18, r22
     c24:	82 2e       	mov	r8, r18
     c26:	91 2c       	mov	r9, r1
     c28:	18 14       	cp	r1, r8
     c2a:	19 04       	cpc	r1, r9
     c2c:	c4 f4       	brge	.+48     	; 0xc5e <_ZN11Framebuffer13drawRectangleEhhhhh+0x68>
     c2e:	76 2e       	mov	r7, r22
     c30:	a1 2c       	mov	r10, r1
     c32:	b1 2c       	mov	r11, r1
     c34:	e0 2e       	mov	r14, r16
     c36:	f1 2c       	mov	r15, r1
     c38:	16 2d       	mov	r17, r6
     c3a:	c0 e0       	ldi	r28, 0x00	; 0
     c3c:	d0 e0       	ldi	r29, 0x00	; 0
     c3e:	41 2f       	mov	r20, r17
     c40:	67 2d       	mov	r22, r7
     c42:	c6 01       	movw	r24, r12
     c44:	5e df       	rcall	.-324    	; 0xb02 <_ZN11Framebuffer9drawPixelEhh>
     c46:	21 96       	adiw	r28, 0x01	; 1
     c48:	1f 5f       	subi	r17, 0xFF	; 255
     c4a:	ec 16       	cp	r14, r28
     c4c:	fd 06       	cpc	r15, r29
     c4e:	bc f7       	brge	.-18     	; 0xc3e <_ZN11Framebuffer13drawRectangleEhhhhh+0x48>
     c50:	8f ef       	ldi	r24, 0xFF	; 255
     c52:	a8 1a       	sub	r10, r24
     c54:	b8 0a       	sbc	r11, r24
     c56:	73 94       	inc	r7
     c58:	a8 14       	cp	r10, r8
     c5a:	b9 04       	cpc	r11, r9
     c5c:	69 f7       	brne	.-38     	; 0xc38 <_ZN11Framebuffer13drawRectangleEhhhhh+0x42>
     c5e:	df 91       	pop	r29
     c60:	cf 91       	pop	r28
     c62:	1f 91       	pop	r17
     c64:	0f 91       	pop	r16
     c66:	ff 90       	pop	r15
     c68:	ef 90       	pop	r14
     c6a:	df 90       	pop	r13
     c6c:	cf 90       	pop	r12
     c6e:	bf 90       	pop	r11
     c70:	af 90       	pop	r10
     c72:	9f 90       	pop	r9
     c74:	8f 90       	pop	r8
     c76:	7f 90       	pop	r7
     c78:	6f 90       	pop	r6
     c7a:	08 95       	ret

00000c7c <_ZN11Framebuffer5clearEv>:
     c7c:	fc 01       	movw	r30, r24
     c7e:	9c 5f       	subi	r25, 0xFC	; 252
     c80:	11 92       	st	Z+, r1
     c82:	e8 17       	cp	r30, r24
     c84:	f9 07       	cpc	r31, r25
     c86:	e1 f7       	brne	.-8      	; 0xc80 <_ZN11Framebuffer5clearEv+0x4>
     c88:	08 95       	ret

00000c8a <_ZN11FramebufferC1Ev>:
     c8a:	cf 93       	push	r28
     c8c:	df 93       	push	r29
     c8e:	ec 01       	movw	r28, r24
     c90:	9c 5f       	subi	r25, 0xFC	; 252
     c92:	c4 d5       	rcall	.+2952   	; 0x181c <_ZN7SSD1306C1Ev>
     c94:	ce 01       	movw	r24, r28
     c96:	f2 df       	rcall	.-28     	; 0xc7c <_ZN11Framebuffer5clearEv>
     c98:	df 91       	pop	r29
     c9a:	cf 91       	pop	r28
     c9c:	08 95       	ret

00000c9e <_ZN11Framebuffer4showEv>:
}

void Framebuffer::show() {
    this->oled.sendFramebuffer(this->buffer);
     c9e:	bc 01       	movw	r22, r24
     ca0:	9c 5f       	subi	r25, 0xFC	; 252
     ca2:	11 c6       	rjmp	.+3106   	; 0x18c6 <_ZN7SSD130615sendFramebufferEPh>
     ca4:	08 95       	ret

00000ca6 <_ZN11Framebuffer8drawCharEiihjjh>:

// Draw a character ***turn to uint8_t ?
//For size 2 the bottom right max is 117,50
//Size 2 fits 4 lines, at y= 0, 16, 32, 48
//fits 10 characters per line at multiples of 12
void Framebuffer::drawChar(int16_t x, int16_t y, unsigned char c, uint16_t color, uint16_t bg, uint8_t size) {
     ca6:	2f 92       	push	r2
     ca8:	3f 92       	push	r3
     caa:	4f 92       	push	r4
     cac:	5f 92       	push	r5
     cae:	6f 92       	push	r6
     cb0:	7f 92       	push	r7
     cb2:	8f 92       	push	r8
     cb4:	9f 92       	push	r9
     cb6:	af 92       	push	r10
     cb8:	bf 92       	push	r11
     cba:	cf 92       	push	r12
     cbc:	df 92       	push	r13
     cbe:	ef 92       	push	r14
     cc0:	ff 92       	push	r15
     cc2:	0f 93       	push	r16
     cc4:	1f 93       	push	r17
     cc6:	cf 93       	push	r28
     cc8:	df 93       	push	r29
     cca:	00 d0       	rcall	.+0      	; 0xccc <_ZN11Framebuffer8drawCharEiihjjh+0x26>
     ccc:	00 d0       	rcall	.+0      	; 0xcce <_ZN11Framebuffer8drawCharEiihjjh+0x28>
     cce:	1f 92       	push	r1
     cd0:	cd b7       	in	r28, 0x3d	; 61
     cd2:	de b7       	in	r29, 0x3e	; 62
     cd4:	5c 01       	movw	r10, r24
     cd6:	4b 83       	std	Y+3, r20	; 0x03
     cd8:	48 01       	movw	r8, r16
     cda:	37 01       	movw	r6, r14
     cdc:	cd 82       	std	Y+5, r12	; 0x05
     cde:	6a 83       	std	Y+2, r22	; 0x02
     ce0:	2c 2c       	mov	r2, r12
     ce2:	26 0e       	add	r2, r22
     ce4:	30 e0       	ldi	r19, 0x00	; 0
     ce6:	69 01       	movw	r12, r18
     ce8:	cc 0c       	add	r12, r12
     cea:	dd 1c       	adc	r13, r13
     cec:	cc 0c       	add	r12, r12
     cee:	dd 1c       	adc	r13, r13
     cf0:	2c 0d       	add	r18, r12
     cf2:	3d 1d       	adc	r19, r13
     cf4:	c9 01       	movw	r24, r18
     cf6:	88 56       	subi	r24, 0x68	; 104
     cf8:	9f 4f       	sbci	r25, 0xFF	; 255
     cfa:	6c 01       	movw	r12, r24
    for (int8_t i=0; i<6; i++ ) {
        uint8_t line;
        if (i == 5)
        line = 0x0;
        else
        line = pgm_read_byte(font+(c*5)+i);
     cfc:	36 2e       	mov	r3, r22
//  (y >= _height)           || // Clip bottom
//  ((x + 6 * size - 1) < 0) || // Clip left
//  ((y + 8 * size - 1) < 0))   // Clip top
//  return;

    for (int8_t i=0; i<6; i++ ) {
     cfe:	19 82       	std	Y+1, r1	; 0x01
     d00:	44 2e       	mov	r4, r20
     d02:	98 e0       	ldi	r25, 0x08	; 8
     d04:	49 0e       	add	r4, r25
        uint8_t line;
        if (i == 5)
     d06:	e9 81       	ldd	r30, Y+1	; 0x01
     d08:	e5 30       	cpi	r30, 0x05	; 5
     d0a:	09 f4       	brne	.+2      	; 0xd0e <_ZN11Framebuffer8drawCharEiihjjh+0x68>
     d0c:	41 c0       	rjmp	.+130    	; 0xd90 <_ZN11Framebuffer8drawCharEiihjjh+0xea>
        line = 0x0;
        else
        line = pgm_read_byte(font+(c*5)+i);
     d0e:	f6 01       	movw	r30, r12
     d10:	14 91       	lpm	r17, Z
     d12:	3f c0       	rjmp	.+126    	; 0xd92 <_ZN11Framebuffer8drawCharEiihjjh+0xec>
        for (int8_t j = 0; j<8; j++) {
            if (line & 0x1) {
     d14:	10 ff       	sbrs	r17, 0
     d16:	11 c0       	rjmp	.+34     	; 0xd3a <_ZN11Framebuffer8drawCharEiihjjh+0x94>
                if (size == 1) // default size
     d18:	fd 81       	ldd	r31, Y+5	; 0x05
     d1a:	f1 30       	cpi	r31, 0x01	; 1
     d1c:	29 f4       	brne	.+10     	; 0xd28 <_ZN11Framebuffer8drawCharEiihjjh+0x82>
                drawPixel(x+i, y+j); //removed color***
     d1e:	4c 81       	ldd	r20, Y+4	; 0x04
     d20:	6a 81       	ldd	r22, Y+2	; 0x02
     d22:	c5 01       	movw	r24, r10
     d24:	ee de       	rcall	.-548    	; 0xb02 <_ZN11Framebuffer9drawPixelEhh>
     d26:	1c c0       	rjmp	.+56     	; 0xd60 <_ZN11Framebuffer8drawCharEiihjjh+0xba>
                else {  // big size
                    drawRectangle(x+(i*size), y+(j*size), size+x+(i*size), size+y+(j*size), 1);
     d28:	ee 24       	eor	r14, r14
     d2a:	e3 94       	inc	r14
     d2c:	0f 2d       	mov	r16, r15
     d2e:	22 2d       	mov	r18, r2
     d30:	45 2d       	mov	r20, r5
     d32:	63 2d       	mov	r22, r3
     d34:	c5 01       	movw	r24, r10
     d36:	5f df       	rcall	.-322    	; 0xbf6 <_ZN11Framebuffer13drawRectangleEhhhhh>
     d38:	13 c0       	rjmp	.+38     	; 0xd60 <_ZN11Framebuffer8drawCharEiihjjh+0xba>
                }
                } else if (bg != color) { //*** remove?
     d3a:	68 14       	cp	r6, r8
     d3c:	79 04       	cpc	r7, r9
     d3e:	81 f0       	breq	.+32     	; 0xd60 <_ZN11Framebuffer8drawCharEiihjjh+0xba>
                if (size == 1) // default size
     d40:	8d 81       	ldd	r24, Y+5	; 0x05
     d42:	81 30       	cpi	r24, 0x01	; 1
     d44:	29 f4       	brne	.+10     	; 0xd50 <_ZN11Framebuffer8drawCharEiihjjh+0xaa>
                drawPixel(x+i, y+j); //removed color
     d46:	4c 81       	ldd	r20, Y+4	; 0x04
     d48:	6a 81       	ldd	r22, Y+2	; 0x02
     d4a:	c5 01       	movw	r24, r10
     d4c:	da de       	rcall	.-588    	; 0xb02 <_ZN11Framebuffer9drawPixelEhh>
     d4e:	08 c0       	rjmp	.+16     	; 0xd60 <_ZN11Framebuffer8drawCharEiihjjh+0xba>
                else {  // big size
                    drawRectangle(x+i*size, y+j*size, size+x+(i*size), size+y+(j*size), 1);
     d50:	ee 24       	eor	r14, r14
     d52:	e3 94       	inc	r14
     d54:	0f 2d       	mov	r16, r15
     d56:	22 2d       	mov	r18, r2
     d58:	45 2d       	mov	r20, r5
     d5a:	63 2d       	mov	r22, r3
     d5c:	c5 01       	movw	r24, r10
     d5e:	4b df       	rcall	.-362    	; 0xbf6 <_ZN11Framebuffer13drawRectangleEhhhhh>
                }
            }
            line >>= 1;
     d60:	16 95       	lsr	r17
     d62:	9d 81       	ldd	r25, Y+5	; 0x05
     d64:	59 0e       	add	r5, r25
     d66:	f9 0e       	add	r15, r25
     d68:	ec 81       	ldd	r30, Y+4	; 0x04
     d6a:	ef 5f       	subi	r30, 0xFF	; 255
     d6c:	ec 83       	std	Y+4, r30	; 0x04
        uint8_t line;
        if (i == 5)
        line = 0x0;
        else
        line = pgm_read_byte(font+(c*5)+i);
        for (int8_t j = 0; j<8; j++) {
     d6e:	e4 11       	cpse	r30, r4
     d70:	d1 cf       	rjmp	.-94     	; 0xd14 <_ZN11Framebuffer8drawCharEiihjjh+0x6e>
     d72:	f9 81       	ldd	r31, Y+1	; 0x01
     d74:	ff 5f       	subi	r31, 0xFF	; 255
     d76:	f9 83       	std	Y+1, r31	; 0x01
     d78:	39 0e       	add	r3, r25
     d7a:	29 0e       	add	r2, r25
     d7c:	8a 81       	ldd	r24, Y+2	; 0x02
     d7e:	8f 5f       	subi	r24, 0xFF	; 255
     d80:	8a 83       	std	Y+2, r24	; 0x02
     d82:	9f ef       	ldi	r25, 0xFF	; 255
     d84:	c9 1a       	sub	r12, r25
     d86:	d9 0a       	sbc	r13, r25
//  (y >= _height)           || // Clip bottom
//  ((x + 6 * size - 1) < 0) || // Clip left
//  ((y + 8 * size - 1) < 0))   // Clip top
//  return;

    for (int8_t i=0; i<6; i++ ) {
     d88:	f6 30       	cpi	r31, 0x06	; 6
     d8a:	09 f0       	breq	.+2      	; 0xd8e <_ZN11Framebuffer8drawCharEiihjjh+0xe8>
     d8c:	bc cf       	rjmp	.-136    	; 0xd06 <_ZN11Framebuffer8drawCharEiihjjh+0x60>
     d8e:	07 c0       	rjmp	.+14     	; 0xd9e <_ZN11Framebuffer8drawCharEiihjjh+0xf8>
        uint8_t line;
        if (i == 5)
        line = 0x0;
     d90:	10 e0       	ldi	r17, 0x00	; 0
     d92:	5b 80       	ldd	r5, Y+3	; 0x03
     d94:	f5 2c       	mov	r15, r5
     d96:	ed 81       	ldd	r30, Y+5	; 0x05
     d98:	fe 0e       	add	r15, r30
//  (y >= _height)           || // Clip bottom
//  ((x + 6 * size - 1) < 0) || // Clip left
//  ((y + 8 * size - 1) < 0))   // Clip top
//  return;

    for (int8_t i=0; i<6; i++ ) {
     d9a:	5c 82       	std	Y+4, r5	; 0x04
     d9c:	bb cf       	rjmp	.-138    	; 0xd14 <_ZN11Framebuffer8drawCharEiihjjh+0x6e>
                }
            }
            line >>= 1;
        }
    }
}
     d9e:	0f 90       	pop	r0
     da0:	0f 90       	pop	r0
     da2:	0f 90       	pop	r0
     da4:	0f 90       	pop	r0
     da6:	0f 90       	pop	r0
     da8:	df 91       	pop	r29
     daa:	cf 91       	pop	r28
     dac:	1f 91       	pop	r17
     dae:	0f 91       	pop	r16
     db0:	ff 90       	pop	r15
     db2:	ef 90       	pop	r14
     db4:	df 90       	pop	r13
     db6:	cf 90       	pop	r12
     db8:	bf 90       	pop	r11
     dba:	af 90       	pop	r10
     dbc:	9f 90       	pop	r9
     dbe:	8f 90       	pop	r8
     dc0:	7f 90       	pop	r7
     dc2:	6f 90       	pop	r6
     dc4:	5f 90       	pop	r5
     dc6:	4f 90       	pop	r4
     dc8:	3f 90       	pop	r3
     dca:	2f 90       	pop	r2
     dcc:	08 95       	ret

00000dce <_ZN11Framebuffer10drawStringEiiPKc>:

// Draw a string
void Framebuffer::drawString(int16_t x, int16_t y, const char *string){
     dce:	6f 92       	push	r6
     dd0:	7f 92       	push	r7
     dd2:	8f 92       	push	r8
     dd4:	9f 92       	push	r9
     dd6:	af 92       	push	r10
     dd8:	bf 92       	push	r11
     dda:	cf 92       	push	r12
     ddc:	ef 92       	push	r14
     dde:	ff 92       	push	r15
     de0:	0f 93       	push	r16
     de2:	1f 93       	push	r17
     de4:	cf 93       	push	r28
     de6:	f9 01       	movw	r30, r18

    for(char j=x; *string; string++,j+=12){
     de8:	c6 2f       	mov	r28, r22
     dea:	20 81       	ld	r18, Z
     dec:	22 23       	and	r18, r18
     dee:	c1 f0       	breq	.+48     	; 0xe20 <_ZN11Framebuffer10drawStringEiiPKc+0x52>
     df0:	5f 01       	movw	r10, r30
     df2:	3a 01       	movw	r6, r20
     df4:	4c 01       	movw	r8, r24
     df6:	8f ef       	ldi	r24, 0xFF	; 255
     df8:	a8 1a       	sub	r10, r24
     dfa:	b8 0a       	sbc	r11, r24
        //(x,y,char,color,bg,size)
        this->drawChar(j,y,*string,0,0,2);
     dfc:	6c 2f       	mov	r22, r28
     dfe:	70 e0       	ldi	r23, 0x00	; 0
     e00:	68 94       	set
     e02:	cc 24       	eor	r12, r12
     e04:	c1 f8       	bld	r12, 1
     e06:	e1 2c       	mov	r14, r1
     e08:	f1 2c       	mov	r15, r1
     e0a:	00 e0       	ldi	r16, 0x00	; 0
     e0c:	10 e0       	ldi	r17, 0x00	; 0
     e0e:	a3 01       	movw	r20, r6
     e10:	c4 01       	movw	r24, r8
     e12:	49 df       	rcall	.-366    	; 0xca6 <_ZN11Framebuffer8drawCharEiihjjh>
}

// Draw a string
void Framebuffer::drawString(int16_t x, int16_t y, const char *string){

    for(char j=x; *string; string++,j+=12){
     e14:	c4 5f       	subi	r28, 0xF4	; 244
     e16:	f5 01       	movw	r30, r10
     e18:	21 91       	ld	r18, Z+
     e1a:	5f 01       	movw	r10, r30
     e1c:	21 11       	cpse	r18, r1
     e1e:	ee cf       	rjmp	.-36     	; 0xdfc <_ZN11Framebuffer10drawStringEiiPKc+0x2e>
        //(x,y,char,color,bg,size)
        this->drawChar(j,y,*string,0,0,2);
    }
    
}
     e20:	cf 91       	pop	r28
     e22:	1f 91       	pop	r17
     e24:	0f 91       	pop	r16
     e26:	ff 90       	pop	r15
     e28:	ef 90       	pop	r14
     e2a:	cf 90       	pop	r12
     e2c:	bf 90       	pop	r11
     e2e:	af 90       	pop	r10
     e30:	9f 90       	pop	r9
     e32:	8f 90       	pop	r8
     e34:	7f 90       	pop	r7
     e36:	6f 90       	pop	r6
     e38:	08 95       	ret

00000e3a <_ZN11Framebuffer10drawNumberEiii>:

void Framebuffer::drawNumber(int16_t x, int16_t y, int number){
     e3a:	8f 92       	push	r8
     e3c:	9f 92       	push	r9
     e3e:	af 92       	push	r10
     e40:	bf 92       	push	r11
     e42:	cf 92       	push	r12
     e44:	df 92       	push	r13
     e46:	ef 92       	push	r14
     e48:	ff 92       	push	r15
     e4a:	0f 93       	push	r16
     e4c:	1f 93       	push	r17
     e4e:	cf 93       	push	r28
     e50:	df 93       	push	r29
     e52:	cd b7       	in	r28, 0x3d	; 61
     e54:	de b7       	in	r29, 0x3e	; 62
     e56:	6c 01       	movw	r12, r24
     e58:	5b 01       	movw	r10, r22
     e5a:	4a 01       	movw	r8, r20
		i = 7;
	}
	char str[i];
	sprintf(str,"%i",number);
	this->drawString(x,y,str);
}
     e5c:	ed b6       	in	r14, 0x3d	; 61
     e5e:	fe b6       	in	r15, 0x3e	; 62
    
}

void Framebuffer::drawNumber(int16_t x, int16_t y, int number){
	char i;
	if(number<10){
     e60:	2a 30       	cpi	r18, 0x0A	; 10
     e62:	31 05       	cpc	r19, r1
     e64:	4c f0       	brlt	.+18     	; 0xe78 <_ZN11Framebuffer10drawNumberEiii+0x3e>
		i = 2;
	}
	else if(number < 100){
     e66:	24 36       	cpi	r18, 0x64	; 100
     e68:	31 05       	cpc	r19, r1
     e6a:	44 f0       	brlt	.+16     	; 0xe7c <_ZN11Framebuffer10drawNumberEiii+0x42>
		i = 3;
	}
	else if(number <1000){
     e6c:	28 3e       	cpi	r18, 0xE8	; 232
     e6e:	43 e0       	ldi	r20, 0x03	; 3
     e70:	34 07       	cpc	r19, r20
     e72:	34 f0       	brlt	.+12     	; 0xe80 <_ZN11Framebuffer10drawNumberEiii+0x46>
		i = 4;
	}
	else{
		i = 7;
     e74:	87 e0       	ldi	r24, 0x07	; 7
     e76:	05 c0       	rjmp	.+10     	; 0xe82 <_ZN11Framebuffer10drawNumberEiii+0x48>
}

void Framebuffer::drawNumber(int16_t x, int16_t y, int number){
	char i;
	if(number<10){
		i = 2;
     e78:	82 e0       	ldi	r24, 0x02	; 2
     e7a:	03 c0       	rjmp	.+6      	; 0xe82 <_ZN11Framebuffer10drawNumberEiii+0x48>
	}
	else if(number < 100){
		i = 3;
     e7c:	83 e0       	ldi	r24, 0x03	; 3
     e7e:	01 c0       	rjmp	.+2      	; 0xe82 <_ZN11Framebuffer10drawNumberEiii+0x48>
	}
	else if(number <1000){
		i = 4;
     e80:	84 e0       	ldi	r24, 0x04	; 4
	}
	else{
		i = 7;
	}
	char str[i];
     e82:	4d b7       	in	r20, 0x3d	; 61
     e84:	5e b7       	in	r21, 0x3e	; 62
     e86:	48 1b       	sub	r20, r24
     e88:	51 09       	sbc	r21, r1
     e8a:	0f b6       	in	r0, 0x3f	; 63
     e8c:	f8 94       	cli
     e8e:	5e bf       	out	0x3e, r21	; 62
     e90:	0f be       	out	0x3f, r0	; 63
     e92:	4d bf       	out	0x3d, r20	; 61
     e94:	0d b7       	in	r16, 0x3d	; 61
     e96:	1e b7       	in	r17, 0x3e	; 62
     e98:	0f 5f       	subi	r16, 0xFF	; 255
     e9a:	1f 4f       	sbci	r17, 0xFF	; 255
	sprintf(str,"%i",number);
     e9c:	3f 93       	push	r19
     e9e:	2f 93       	push	r18
     ea0:	87 e3       	ldi	r24, 0x37	; 55
     ea2:	91 e0       	ldi	r25, 0x01	; 1
     ea4:	9f 93       	push	r25
     ea6:	8f 93       	push	r24
     ea8:	1f 93       	push	r17
     eaa:	0f 93       	push	r16
     eac:	0e 94 1c 10 	call	0x2038	; 0x2038 <sprintf>
	this->drawString(x,y,str);
     eb0:	20 2f       	mov	r18, r16
     eb2:	31 2f       	mov	r19, r17
     eb4:	a4 01       	movw	r20, r8
     eb6:	b5 01       	movw	r22, r10
     eb8:	c6 01       	movw	r24, r12
     eba:	89 df       	rcall	.-238    	; 0xdce <_ZN11Framebuffer10drawStringEiiPKc>
}
     ebc:	0f 90       	pop	r0
     ebe:	0f 90       	pop	r0
     ec0:	0f 90       	pop	r0
     ec2:	0f 90       	pop	r0
     ec4:	0f 90       	pop	r0
     ec6:	0f 90       	pop	r0
     ec8:	0f b6       	in	r0, 0x3f	; 63
     eca:	f8 94       	cli
     ecc:	fe be       	out	0x3e, r15	; 62
     ece:	0f be       	out	0x3f, r0	; 63
     ed0:	ed be       	out	0x3d, r14	; 61
     ed2:	df 91       	pop	r29
     ed4:	cf 91       	pop	r28
     ed6:	1f 91       	pop	r17
     ed8:	0f 91       	pop	r16
     eda:	ff 90       	pop	r15
     edc:	ef 90       	pop	r14
     ede:	df 90       	pop	r13
     ee0:	cf 90       	pop	r12
     ee2:	bf 90       	pop	r11
     ee4:	af 90       	pop	r10
     ee6:	9f 90       	pop	r9
     ee8:	8f 90       	pop	r8
     eea:	08 95       	ret

00000eec <_ZN3I2CC1Ev>:

#include "I2C.h"

#define F_CPU 8000000

I2C::I2C() {}
     eec:	08 95       	ret

00000eee <_ZN3I2C4initEh>:

void I2C::init(uint8_t address) {
    this->address = address;
     eee:	fc 01       	movw	r30, r24
     ef0:	60 83       	st	Z, r22
    TWSR = 0;
     ef2:	10 92 b9 00 	sts	0x00B9, r1	; 0x8000b9 <__TEXT_REGION_LENGTH__+0x7e00b9>
    TWBR = ((F_CPU/SCL_CLOCK)-16)/2;
     ef6:	80 e2       	ldi	r24, 0x20	; 32
     ef8:	80 93 b8 00 	sts	0x00B8, r24	; 0x8000b8 <__TEXT_REGION_LENGTH__+0x7e00b8>
     efc:	08 95       	ret

00000efe <_ZN3I2C5startEv>:
}

uint8_t I2C::start() {
     efe:	dc 01       	movw	r26, r24
    TWCR = (1<<TWINT) | (1<<TWSTA) | (1<<TWEN);
     f00:	84 ea       	ldi	r24, 0xA4	; 164
     f02:	80 93 bc 00 	sts	0x00BC, r24	; 0x8000bc <__TEXT_REGION_LENGTH__+0x7e00bc>
    while(!(TWCR & (1<<TWINT)));
     f06:	ec eb       	ldi	r30, 0xBC	; 188
     f08:	f0 e0       	ldi	r31, 0x00	; 0
     f0a:	90 81       	ld	r25, Z
     f0c:	99 23       	and	r25, r25
     f0e:	ec f7       	brge	.-6      	; 0xf0a <_ZN3I2C5startEv+0xc>

    twi_status_register = TW_STATUS & 0xF8;
     f10:	90 91 b9 00 	lds	r25, 0x00B9	; 0x8000b9 <__TEXT_REGION_LENGTH__+0x7e00b9>
     f14:	98 7f       	andi	r25, 0xF8	; 248
     f16:	11 96       	adiw	r26, 0x01	; 1
     f18:	9c 93       	st	X, r25
     f1a:	11 97       	sbiw	r26, 0x01	; 1
    if ((this->twi_status_register != TW_START) && (this->twi_status_register != TW_REP_START)) {
     f1c:	98 30       	cpi	r25, 0x08	; 8
     f1e:	11 f0       	breq	.+4      	; 0xf24 <_ZN3I2C5startEv+0x26>
     f20:	90 31       	cpi	r25, 0x10	; 16
     f22:	b9 f4       	brne	.+46     	; 0xf52 <_ZN3I2C5startEv+0x54>
        return 1;
    }

    TWDR = address;
     f24:	8c 91       	ld	r24, X
     f26:	80 93 bb 00 	sts	0x00BB, r24	; 0x8000bb <__TEXT_REGION_LENGTH__+0x7e00bb>
    TWCR = (1<<TWINT) | (1<<TWEN);
     f2a:	84 e8       	ldi	r24, 0x84	; 132
     f2c:	80 93 bc 00 	sts	0x00BC, r24	; 0x8000bc <__TEXT_REGION_LENGTH__+0x7e00bc>

    while(!(TWCR & (1<<TWINT)));
     f30:	ec eb       	ldi	r30, 0xBC	; 188
     f32:	f0 e0       	ldi	r31, 0x00	; 0
     f34:	90 81       	ld	r25, Z
     f36:	99 23       	and	r25, r25
     f38:	ec f7       	brge	.-6      	; 0xf34 <_ZN3I2C5startEv+0x36>

    this->twi_status_register = TW_STATUS & 0xF8;
     f3a:	90 91 b9 00 	lds	r25, 0x00B9	; 0x8000b9 <__TEXT_REGION_LENGTH__+0x7e00b9>
     f3e:	98 7f       	andi	r25, 0xF8	; 248
     f40:	11 96       	adiw	r26, 0x01	; 1
     f42:	9c 93       	st	X, r25
    if ((this->twi_status_register != TW_MT_SLA_ACK) && (this->twi_status_register != TW_MR_SLA_ACK)) {
     f44:	98 31       	cpi	r25, 0x18	; 24
     f46:	39 f0       	breq	.+14     	; 0xf56 <_ZN3I2C5startEv+0x58>
    TWCR = (1<<TWINT) | (1<<TWSTA) | (1<<TWEN);
    while(!(TWCR & (1<<TWINT)));

    twi_status_register = TW_STATUS & 0xF8;
    if ((this->twi_status_register != TW_START) && (this->twi_status_register != TW_REP_START)) {
        return 1;
     f48:	81 e0       	ldi	r24, 0x01	; 1
     f4a:	90 34       	cpi	r25, 0x40	; 64
     f4c:	29 f4       	brne	.+10     	; 0xf58 <_ZN3I2C5startEv+0x5a>
     f4e:	80 e0       	ldi	r24, 0x00	; 0
     f50:	08 95       	ret
     f52:	81 e0       	ldi	r24, 0x01	; 1
     f54:	08 95       	ret
    this->twi_status_register = TW_STATUS & 0xF8;
    if ((this->twi_status_register != TW_MT_SLA_ACK) && (this->twi_status_register != TW_MR_SLA_ACK)) {
        return 1;
    }

    return 0;
     f56:	80 e0       	ldi	r24, 0x00	; 0
}
     f58:	08 95       	ret

00000f5a <_ZN3I2C5writeEh>:

uint8_t I2C::write(uint8_t data) {
     f5a:	dc 01       	movw	r26, r24
    TWDR = data;
     f5c:	60 93 bb 00 	sts	0x00BB, r22	; 0x8000bb <__TEXT_REGION_LENGTH__+0x7e00bb>
    TWCR = (1<<TWINT) | (1<<TWEN);
     f60:	84 e8       	ldi	r24, 0x84	; 132
     f62:	80 93 bc 00 	sts	0x00BC, r24	; 0x8000bc <__TEXT_REGION_LENGTH__+0x7e00bc>

    while(!(TWCR & (1<<TWINT)));
     f66:	ec eb       	ldi	r30, 0xBC	; 188
     f68:	f0 e0       	ldi	r31, 0x00	; 0
     f6a:	90 81       	ld	r25, Z
     f6c:	99 23       	and	r25, r25
     f6e:	ec f7       	brge	.-6      	; 0xf6a <_ZN3I2C5writeEh+0x10>

    this->twi_status_register = TW_STATUS & 0xF8;
     f70:	90 91 b9 00 	lds	r25, 0x00B9	; 0x8000b9 <__TEXT_REGION_LENGTH__+0x7e00b9>
     f74:	98 7f       	andi	r25, 0xF8	; 248
     f76:	11 96       	adiw	r26, 0x01	; 1
     f78:	9c 93       	st	X, r25
     f7a:	81 e0       	ldi	r24, 0x01	; 1
     f7c:	98 32       	cpi	r25, 0x28	; 40
     f7e:	09 f4       	brne	.+2      	; 0xf82 <_ZN3I2C5writeEh+0x28>
     f80:	80 e0       	ldi	r24, 0x00	; 0
    if (this->twi_status_register != TW_MT_DATA_ACK) {
        return 1;
    } else {
        return 0;
    }
}
     f82:	08 95       	ret

00000f84 <_ZN3I2C4stopEv>:

void I2C::stop(void) {
    TWCR = (1<<TWINT) | (1<<TWEN) | (1<<TWSTO);
     f84:	84 e9       	ldi	r24, 0x94	; 148
     f86:	80 93 bc 00 	sts	0x00BC, r24	; 0x8000bc <__TEXT_REGION_LENGTH__+0x7e00bc>
    while(TWCR & (1<<TWSTO));
     f8a:	ec eb       	ldi	r30, 0xBC	; 188
     f8c:	f0 e0       	ldi	r31, 0x00	; 0
     f8e:	80 81       	ld	r24, Z
     f90:	84 fd       	sbrc	r24, 4
     f92:	fd cf       	rjmp	.-6      	; 0xf8e <_ZN3I2C4stopEv+0xa>
     f94:	08 95       	ret

00000f96 <main>:
Framebuffer myDisplay;

int main(void){
	unsigned char menuSelector = 0;
	
	cli(); //Ensure interrupts are turned off
     f96:	f8 94       	cli
	//Set system clock to 8MHz
	CLKPR = _BV(CLKPCE);
     f98:	e1 e6       	ldi	r30, 0x61	; 97
     f9a:	f0 e0       	ldi	r31, 0x00	; 0
     f9c:	80 e8       	ldi	r24, 0x80	; 128
     f9e:	80 83       	st	Z, r24
	CLKPR = 0;
     fa0:	10 82       	st	Z, r1
	
	//pin 6 input for stepper calibration pin
	DDRE &= 0x0e; 
     fa2:	8d b1       	in	r24, 0x0d	; 13
     fa4:	8e 70       	andi	r24, 0x0E	; 14
     fa6:	8d b9       	out	0x0d, r24	; 13
	//Leds output
	DDRC |= 0xff;
     fa8:	87 b1       	in	r24, 0x07	; 7
     faa:	8f ef       	ldi	r24, 0xFF	; 255
     fac:	87 b9       	out	0x07, r24	; 7
	//Joystick input w/ pullup up(pin7) left(pin6) select(pin5) 
	DDRB &= ~JS_UP_PIN & ~JS_LEFT_PIN & ~JS_SELECT_PIN; 
     fae:	84 b1       	in	r24, 0x04	; 4
     fb0:	8f 71       	andi	r24, 0x1F	; 31
     fb2:	84 b9       	out	0x04, r24	; 4
	PORTB |= JS_UP_PIN | JS_LEFT_PIN | JS_SELECT_PIN;
     fb4:	85 b1       	in	r24, 0x05	; 5
     fb6:	80 6e       	ori	r24, 0xE0	; 224
     fb8:	85 b9       	out	0x05, r24	; 5
	//Joystick input w/ pullup down(pin5) right(pin4)
	DDRE &= ~JS_DOWN_PIN & ~JS_RIGHT_PIN;
     fba:	8d b1       	in	r24, 0x0d	; 13
     fbc:	8f 7c       	andi	r24, 0xCF	; 207
     fbe:	8d b9       	out	0x0d, r24	; 13
	PORTE |= JS_DOWN_PIN | JS_RIGHT_PIN;
     fc0:	8e b1       	in	r24, 0x0e	; 14
     fc2:	80 63       	ori	r24, 0x30	; 48
	
	initADC();
	initMotor();
     fc4:	8e b9       	out	0x0e, r24	; 14
	initTimer();
	initExtInt();
	initMotor();
     fc6:	11 db       	rcall	.-2526   	; 0x5ea <_Z7initADCv>
	initStepper();
     fc8:	f0 d3       	rcall	.+2016   	; 0x17aa <_Z9initMotorv>
     fca:	0e 94 e9 0f 	call	0x1fd2	; 0x1fd2 <_Z9initTimerv>
	
	motorBrake();
     fce:	40 dc       	rcall	.-1920   	; 0x850 <_Z10initExtIntv>
	motorSpeed(0xc0);//doesn't seem to like 0xdf
     fd0:	ec d3       	rcall	.+2008   	; 0x17aa <_Z9initMotorv>
     fd2:	bf d4       	rcall	.+2430   	; 0x1952 <_Z11initStepperv>
     fd4:	0d d4       	rcall	.+2074   	; 0x17f0 <_Z10motorBrakev>
	menu1Start();
 	while(1){
		//If Joystick down -> highlight Calibrate
 		if((PINE & JS_DOWN_PIN) == 0){
			menu1Calibration();
			menuSelector = MENU_CALIBRATION;
     fd6:	80 ec       	ldi	r24, 0xC0	; 192
 		}
		//If Joystick Up -> highlight Start
		if((PINB & JS_UP_PIN) == 0){
			menu1Start();
			menuSelector = MENU_START;
     fd8:	01 d4       	rcall	.+2050   	; 0x17dc <_Z10motorSpeedc>
		}
 	}

	//////////CALIBRATION LOOP SCREEN 2
	calibration:
	menuSelector = MENU_HOME;
     fda:	01 e0       	ldi	r16, 0x01	; 1
     fdc:	d0 e0       	ldi	r29, 0x00	; 0
     fde:	68 94       	set
	menu1Start();
 	while(1){
		//If Joystick down -> highlight Calibrate
 		if((PINE & JS_DOWN_PIN) == 0){
			menu1Calibration();
			menuSelector = MENU_CALIBRATION;
     fe0:	bb 24       	eor	r11, r11
	menu2Home();
	while(1){
		//If Joystick down -> highlight Optical S
		if((PINE & JS_DOWN_PIN) == 0 && menuSelector == MENU_STEPPER){
			menu2Refl();
			menuSelector = MENU_OPTICALS;
     fe2:	b1 f8       	bld	r11, 1
     fe4:	c0 2e       	mov	r12, r16
			menu2Stepper();
			menuSelector = MENU_STEPPER;
		}
		else if((PINB & JS_UP_PIN) == 0 && menuSelector == MENU_STEPPER){
			menu2Home();
			menuSelector = MENU_HOME;
     fe6:	dd 2e       	mov	r13, r29
     fe8:	0f 2e       	mov	r0, r31
	
	
	////////MENU SCREEN 1
	menu:
	menuSelector = MENU_START;
	menu1Start();
     fea:	f3 e0       	ldi	r31, 0x03	; 3
		}*/
	
	
	////////MENU SCREEN 1
	menu:
	menuSelector = MENU_START;
     fec:	ef 2e       	mov	r14, r31
	menu1Start();
 	while(1){
		//If Joystick down -> highlight Calibrate
 		if((PINE & JS_DOWN_PIN) == 0){
     fee:	f0 2d       	mov	r31, r0
     ff0:	14 e0       	ldi	r17, 0x04	; 4
			menu1Calibration();
     ff2:	fb 2c       	mov	r15, r11
			menuSelector = MENU_CALIBRATION;
 		}
		//If Joystick Up -> highlight Start
		if((PINB & JS_UP_PIN) == 0){
     ff4:	ab 2c       	mov	r10, r11
     ff6:	f2 d0       	rcall	.+484    	; 0x11dc <_Z10menu1Startv>
			menu1Start();
     ff8:	cd 2f       	mov	r28, r29
			menuSelector = MENU_START;
		}
		//If Joystick select -> run currently selected option
		if((PINB & JS_SELECT_PIN) == 0){
     ffa:	65 99       	sbic	0x0c, 5	; 12
     ffc:	02 c0       	rjmp	.+4      	; 0x1002 <main+0x6c>
			//sei(); ***test without
			//Debounce
			mTimer(20);
     ffe:	1d d1       	rcall	.+570    	; 0x123a <_Z16menu1Calibrationv>
    1000:	cc 2d       	mov	r28, r12
    1002:	1f 99       	sbic	0x03, 7	; 3
    1004:	02 c0       	rjmp	.+4      	; 0x100a <main+0x74>
			while((PINB & JS_SELECT_PIN) == 0){};
    1006:	ea d0       	rcall	.+468    	; 0x11dc <_Z10menu1Startv>
    1008:	cd 2d       	mov	r28, r13
			mTimer(20);
    100a:	1d 99       	sbic	0x03, 5	; 3
    100c:	f6 cf       	rjmp	.-20     	; 0xffa <main+0x64>
    100e:	84 e1       	ldi	r24, 0x14	; 20
    1010:	90 e0       	ldi	r25, 0x00	; 0
			//cli(); *** test without
			if(menuSelector == MENU_CALIBRATION){
    1012:	eb d7       	rcall	.+4054   	; 0x1fea <_Z6mTimeri>
    1014:	1d 9b       	sbis	0x03, 5	; 3
			
			if(reflQueue[frontOfQueue] == BLACK){
				stepGoalPosition = STEPPER_BLACK_POSITION;
			}
			else if(reflQueue[frontOfQueue] == WHITE){
				stepGoalPosition = STEPPER_WHITE_POSITION;
    1016:	fe cf       	rjmp	.-4      	; 0x1014 <main+0x7e>
    1018:	84 e1       	ldi	r24, 0x14	; 20
    101a:	90 e0       	ldi	r25, 0x00	; 0
    101c:	e6 d7       	rcall	.+4044   	; 0x1fea <_Z6mTimeri>
			}
			else if(reflQueue[frontOfQueue] == STEEL){
				stepGoalPosition = STEPPER_STEEL_POSITION;
			}
			else if(reflQueue[frontOfQueue] == ALUMINUM){
				stepGoalPosition = STEPPER_ALUMINIUM_POSITION;
    101e:	c1 30       	cpi	r28, 0x01	; 1
			}
			else if(reflQueue[frontOfQueue] == WHITE){
				stepGoalPosition = STEPPER_WHITE_POSITION;
			}
			else if(reflQueue[frontOfQueue] == STEEL){
				stepGoalPosition = STEPPER_STEEL_POSITION;
    1020:	79 f0       	breq	.+30     	; 0x1040 <main+0xaa>
    1022:	0f 2e       	mov	r0, r31
    1024:	f4 e6       	ldi	r31, 0x64	; 100
    1026:	cf 2e       	mov	r12, r31
    1028:	f0 2d       	mov	r31, r0
			
			if(reflQueue[frontOfQueue] == BLACK){
				stepGoalPosition = STEPPER_BLACK_POSITION;
			}
			else if(reflQueue[frontOfQueue] == WHITE){
				stepGoalPosition = STEPPER_WHITE_POSITION;
    102a:	d1 2c       	mov	r13, r1
    102c:	c2 e3       	ldi	r28, 0x32	; 50
    102e:	d0 e0       	ldi	r29, 0x00	; 0
 	}

	//////////CALIBRATION LOOP SCREEN 2
	calibration:
	menuSelector = MENU_HOME;
	menu2Home();
    1030:	0f 2e       	mov	r0, r31
    1032:	f6 e9       	ldi	r31, 0x96	; 150
		}
 	}

	//////////CALIBRATION LOOP SCREEN 2
	calibration:
	menuSelector = MENU_HOME;
    1034:	ef 2e       	mov	r14, r31
	menu2Home();
	while(1){
		//If Joystick down -> highlight Optical S
		if((PINE & JS_DOWN_PIN) == 0 && menuSelector == MENU_STEPPER){
    1036:	f1 2c       	mov	r15, r1
    1038:	f0 2d       	mov	r31, r0
    103a:	0c 2d       	mov	r16, r12
    103c:	1d 2d       	mov	r17, r13
			menu2Refl();
			menuSelector = MENU_OPTICALS;
		}
		else if((PINE & JS_DOWN_PIN) == 0 && menuSelector == MENU_HOME){
    103e:	5e c0       	rjmp	.+188    	; 0x10fc <main+0x166>
    1040:	2b d1       	rcall	.+598    	; 0x1298 <_Z9menu2Homev>
    1042:	cf 2d       	mov	r28, r15
    1044:	65 99       	sbic	0x0c, 5	; 12
			mTimer(20);
			while((PINE & JS_DOWN_PIN) == 0){};
    1046:	b0 c0       	rjmp	.+352    	; 0x11a8 <main+0x212>
    1048:	c4 30       	cpi	r28, 0x04	; 4
			mTimer(20);
    104a:	09 f0       	breq	.+2      	; 0x104e <main+0xb8>
    104c:	ad c0       	rjmp	.+346    	; 0x11a8 <main+0x212>
    104e:	a9 c0       	rjmp	.+338    	; 0x11a2 <main+0x20c>
			menu2Stepper();
    1050:	c2 30       	cpi	r28, 0x02	; 2
			menuSelector = MENU_STEPPER;
    1052:	09 f0       	breq	.+2      	; 0x1056 <main+0xc0>
		}
		//If Joystick Up -> highlight Stepper
		else if((PINB & JS_UP_PIN) == 0 && menuSelector == MENU_OPTICALS){
    1054:	ab c0       	rjmp	.+342    	; 0x11ac <main+0x216>
    1056:	ad c0       	rjmp	.+346    	; 0x11b2 <main+0x21c>
    1058:	65 9b       	sbis	0x0c, 5	; 12
    105a:	fe cf       	rjmp	.-4      	; 0x1058 <main+0xc2>
			mTimer(20);
			while((PINB & JS_UP_PIN) == 0){};
    105c:	84 e1       	ldi	r24, 0x14	; 20
			mTimer(20);
    105e:	90 e0       	ldi	r25, 0x00	; 0
    1060:	c4 d7       	rcall	.+3976   	; 0x1fea <_Z6mTimeri>
    1062:	3c d1       	rcall	.+632    	; 0x12dc <_Z12menu2Stepperv>
			menu2Stepper();
    1064:	c1 2f       	mov	r28, r17
			menuSelector = MENU_STEPPER;
    1066:	ee cf       	rjmp	.-36     	; 0x1044 <main+0xae>
    1068:	c3 30       	cpi	r28, 0x03	; 3
		}
		else if((PINB & JS_UP_PIN) == 0 && menuSelector == MENU_STEPPER){
    106a:	09 f0       	breq	.+2      	; 0x106e <main+0xd8>
    106c:	a6 c0       	rjmp	.+332    	; 0x11ba <main+0x224>
    106e:	a8 c0       	rjmp	.+336    	; 0x11c0 <main+0x22a>
    1070:	1f 9b       	sbis	0x03, 7	; 3
		}
		else if((PINB & JS_LEFT_PIN) == 0){
			goto menu;
		}
		//If Joystick select -> run currently selected option
		else if((PINB & JS_SELECT_PIN) == 0){
    1072:	fe cf       	rjmp	.-4      	; 0x1070 <main+0xda>
			mTimer(20);
    1074:	84 e1       	ldi	r24, 0x14	; 20
    1076:	90 e0       	ldi	r25, 0x00	; 0
    1078:	b8 d7       	rcall	.+3952   	; 0x1fea <_Z6mTimeri>
    107a:	30 d1       	rcall	.+608    	; 0x12dc <_Z12menu2Stepperv>
			while((PINB & JS_SELECT_PIN) == 0){};
    107c:	c1 2f       	mov	r28, r17
    107e:	e2 cf       	rjmp	.-60     	; 0x1044 <main+0xae>
			mTimer(20);
    1080:	c4 30       	cpi	r28, 0x04	; 4
    1082:	09 f0       	breq	.+2      	; 0x1086 <main+0xf0>
    1084:	a1 c0       	rjmp	.+322    	; 0x11c8 <main+0x232>
    1086:	a3 c0       	rjmp	.+326    	; 0x11ce <main+0x238>
			if(menuSelector == MENU_OPTICALS){
    1088:	1d 99       	sbic	0x03, 5	; 3
				calibrateADC();
    108a:	dc cf       	rjmp	.-72     	; 0x1044 <main+0xae>
    108c:	84 e1       	ldi	r24, 0x14	; 20
    108e:	90 e0       	ldi	r25, 0x00	; 0
				//Reset Queue and front/back 
				for(unsigned char i = 0; i<8;i++){
					reflQueue[i] = 0;
    1090:	ac d7       	rcall	.+3928   	; 0x1fea <_Z6mTimeri>
    1092:	1d 9b       	sbis	0x03, 5	; 3
    1094:	fe cf       	rjmp	.-4      	; 0x1092 <main+0xfc>
    1096:	84 e1       	ldi	r24, 0x14	; 20
			while((PINB & JS_SELECT_PIN) == 0){};
			mTimer(20);
			if(menuSelector == MENU_OPTICALS){
				calibrateADC();
				//Reset Queue and front/back 
				for(unsigned char i = 0; i<8;i++){
    1098:	90 e0       	ldi	r25, 0x00	; 0
    109a:	a7 d7       	rcall	.+3918   	; 0x1fea <_Z6mTimeri>
    109c:	c3 30       	cpi	r28, 0x03	; 3
					reflQueue[i] = 0;
				}
				frontOfQueue = 0;
    109e:	d1 f4       	brne	.+52     	; 0x10d4 <main+0x13e>
    10a0:	f7 da       	rcall	.-2578   	; 0x690 <_Z12calibrateADCv>
				backOfQueue = 0;
    10a2:	80 e0       	ldi	r24, 0x00	; 0
    10a4:	90 e0       	ldi	r25, 0x00	; 0
				//Continue showing calibration results till user presses Select
				while(1){
					if((PINB & JS_SELECT_PIN) == 0){
    10a6:	fc 01       	movw	r30, r24
						mTimer(20);
    10a8:	e5 5d       	subi	r30, 0xD5	; 213
    10aa:	fd 4f       	sbci	r31, 0xFD	; 253
    10ac:	10 82       	st	Z, r1
    10ae:	01 96       	adiw	r24, 0x01	; 1
						while((PINB & JS_SELECT_PIN) == 0){};
    10b0:	88 30       	cpi	r24, 0x08	; 8
						mTimer(20);
    10b2:	91 05       	cpc	r25, r1
    10b4:	c1 f7       	brne	.-16     	; 0x10a6 <main+0x110>
    10b6:	d0 93 29 02 	sts	0x0229, r29	; 0x800229 <frontOfQueue>
						goto calibration;
					}
				}
				
			}
			else if(menuSelector == MENU_HOME){
    10ba:	d0 93 28 02 	sts	0x0228, r29	; 0x800228 <backOfQueue>
				homeStepper();
				goto menu;
			}
			else if(menuSelector == MENU_STEPPER){
    10be:	1d 99       	sbic	0x03, 5	; 3
				PORTC = 1;
				stepperCalibration();
    10c0:	fe cf       	rjmp	.-4      	; 0x10be <main+0x128>
				goto calibration;
    10c2:	84 e1       	ldi	r24, 0x14	; 20
		
	//////////DISPLAY RESULTS MENU SCREEN 3
	displayResults:
	menuDisplayItemCount();
	while(1){
		if((PINB & JS_LEFT_PIN) == 0){
    10c4:	90 e0       	ldi	r25, 0x00	; 0
			goto mainLoop;
		}
		else if(JS_UP_PRESSED){
    10c6:	91 d7       	rcall	.+3874   	; 0x1fea <_Z6mTimeri>
    10c8:	1d 9b       	sbis	0x03, 5	; 3
			menuDebugQ();
    10ca:	fe cf       	rjmp	.-4      	; 0x10c8 <main+0x132>
    10cc:	84 e1       	ldi	r24, 0x14	; 20
    10ce:	90 e0       	ldi	r25, 0x00	; 0
		}
		else if(JS_DOWN_PRESSED){
    10d0:	8c d7       	rcall	.+3864   	; 0x1fea <_Z6mTimeri>
    10d2:	b6 cf       	rjmp	.-148    	; 0x1040 <main+0xaa>
			menuDisplayItemCount();
    10d4:	c2 30       	cpi	r28, 0x02	; 2
    10d6:	11 f4       	brne	.+4      	; 0x10dc <main+0x146>
    10d8:	cc d4       	rcall	.+2456   	; 0x1a72 <_Z11homeStepperv>
	}
		
    //////////MAIN LOOP
	mainLoop:
	
	motorForward(); 
    10da:	8b cf       	rjmp	.-234    	; 0xff2 <main+0x5c>
    10dc:	c4 30       	cpi	r28, 0x04	; 4
	startStepper();
    10de:	09 f0       	breq	.+2      	; 0x10e2 <main+0x14c>
    10e0:	b1 cf       	rjmp	.-158    	; 0x1044 <main+0xae>
	sei();
    10e2:	08 b9       	out	0x08, r16	; 8
    while (1){
		//Debugging routines
		menuDebugQ();
    10e4:	d9 d4       	rcall	.+2482   	; 0x1a98 <_Z18stepperCalibrationv>
    10e6:	ac cf       	rjmp	.-168    	; 0x1040 <main+0xaa>
		//menuDebugS();
		
		//while(1){};
		if(reflQueueChange){
    10e8:	1e 9b       	sbis	0x03, 6	; 3
    10ea:	08 c0       	rjmp	.+16     	; 0x10fc <main+0x166>
    10ec:	1f 99       	sbic	0x03, 7	; 3
    10ee:	02 c0       	rjmp	.+4      	; 0x10f4 <main+0x15e>
    10f0:	39 d1       	rcall	.+626    	; 0x1364 <_Z10menuDebugQv>
			//turn off interrupts? ***
			cli();
    10f2:	fa cf       	rjmp	.-12     	; 0x10e8 <main+0x152>
			if(delayStepper){
    10f4:	65 99       	sbic	0x0c, 5	; 12
    10f6:	f8 cf       	rjmp	.-16     	; 0x10e8 <main+0x152>
    10f8:	1d d2       	rcall	.+1082   	; 0x1534 <_Z20menuDisplayItemCountv>
    10fa:	f6 cf       	rjmp	.-20     	; 0x10e8 <main+0x152>
				mTimer(STEPPER_MOVE_DELAY);
    10fc:	74 d3       	rcall	.+1768   	; 0x17e6 <_Z12motorForwardv>
    10fe:	33 d4       	rcall	.+2150   	; 0x1966 <_Z12startStepperv>
    1100:	78 94       	sei
				delayStepper = 0;
    1102:	30 d1       	rcall	.+608    	; 0x1364 <_Z10menuDebugQv>
    1104:	80 91 27 02 	lds	r24, 0x0227	; 0x800227 <reflQueueChange>
			}	
			
			
			if(reflQueue[frontOfQueue] == BLACK){
    1108:	88 23       	and	r24, r24
    110a:	09 f4       	brne	.+2      	; 0x110e <main+0x178>
    110c:	3f c0       	rjmp	.+126    	; 0x118c <main+0x1f6>
    110e:	f8 94       	cli
    1110:	80 91 3d 06 	lds	r24, 0x063D	; 0x80063d <delayStepper>
    1114:	88 23       	and	r24, r24
				stepGoalPosition = STEPPER_BLACK_POSITION;
    1116:	21 f0       	breq	.+8      	; 0x1120 <main+0x18a>
    1118:	ce 01       	movw	r24, r28
    111a:	67 d7       	rcall	.+3790   	; 0x1fea <_Z6mTimeri>
    111c:	10 92 3d 06 	sts	0x063D, r1	; 0x80063d <delayStepper>
			}
			else if(reflQueue[frontOfQueue] == WHITE){
    1120:	e0 91 29 02 	lds	r30, 0x0229	; 0x800229 <frontOfQueue>
    1124:	f0 e0       	ldi	r31, 0x00	; 0
    1126:	e5 5d       	subi	r30, 0xD5	; 213
    1128:	fd 4f       	sbci	r31, 0xFD	; 253
    112a:	80 81       	ld	r24, Z
    112c:	81 11       	cpse	r24, r1
    112e:	05 c0       	rjmp	.+10     	; 0x113a <main+0x1a4>
				stepGoalPosition = STEPPER_WHITE_POSITION;
    1130:	10 92 41 06 	sts	0x0641, r1	; 0x800641 <stepGoalPosition+0x1>
    1134:	10 92 40 06 	sts	0x0640, r1	; 0x800640 <stepGoalPosition>
    1138:	26 c0       	rjmp	.+76     	; 0x1186 <main+0x1f0>
			}
			else if(reflQueue[frontOfQueue] == STEEL){
    113a:	e0 91 29 02 	lds	r30, 0x0229	; 0x800229 <frontOfQueue>
    113e:	f0 e0       	ldi	r31, 0x00	; 0
    1140:	e5 5d       	subi	r30, 0xD5	; 213
    1142:	fd 4f       	sbci	r31, 0xFD	; 253
    1144:	80 81       	ld	r24, Z
    1146:	81 30       	cpi	r24, 0x01	; 1
    1148:	29 f4       	brne	.+10     	; 0x1154 <main+0x1be>
				stepGoalPosition = STEPPER_STEEL_POSITION;
    114a:	10 93 41 06 	sts	0x0641, r17	; 0x800641 <stepGoalPosition+0x1>
    114e:	00 93 40 06 	sts	0x0640, r16	; 0x800640 <stepGoalPosition>
    1152:	19 c0       	rjmp	.+50     	; 0x1186 <main+0x1f0>
			}
			else if(reflQueue[frontOfQueue] == ALUMINUM){
    1154:	e0 91 29 02 	lds	r30, 0x0229	; 0x800229 <frontOfQueue>
    1158:	f0 e0       	ldi	r31, 0x00	; 0
    115a:	e5 5d       	subi	r30, 0xD5	; 213
    115c:	fd 4f       	sbci	r31, 0xFD	; 253
				stepGoalPosition = STEPPER_ALUMINIUM_POSITION;
    115e:	80 81       	ld	r24, Z
    1160:	82 30       	cpi	r24, 0x02	; 2
    1162:	29 f4       	brne	.+10     	; 0x116e <main+0x1d8>
    1164:	f0 92 41 06 	sts	0x0641, r15	; 0x800641 <stepGoalPosition+0x1>
			}

			reflQueueChange = 0;
    1168:	e0 92 40 06 	sts	0x0640, r14	; 0x800640 <stepGoalPosition>
		}

		//Allows user to go to results display
		if((PINE & JS_RIGHT_PIN) == 0){
			//Brake motor
			MOTOR_PORT = (MOTOR_PORT & ~MOTOR_PINS) | MOTOR_BRAKE;
    116c:	0c c0       	rjmp	.+24     	; 0x1186 <main+0x1f0>
    116e:	e0 91 29 02 	lds	r30, 0x0229	; 0x800229 <frontOfQueue>
			//Wait for motor to stop before turning off interrupts
			mTimer(MOTOR_BRAKE_TIME_MS); 
    1172:	f0 e0       	ldi	r31, 0x00	; 0
    1174:	e5 5d       	subi	r30, 0xD5	; 213
    1176:	fd 4f       	sbci	r31, 0xFD	; 253
			cli();
    1178:	80 81       	ld	r24, Z
		}
	}
		
	//////////DISPLAY RESULTS MENU SCREEN 3
	displayResults:
	menuDisplayItemCount();
    117a:	83 30       	cpi	r24, 0x03	; 3
    117c:	21 f4       	brne	.+8      	; 0x1186 <main+0x1f0>
	menuSelector = MENU_HOME;
	menu2Home();
	while(1){
		//If Joystick down -> highlight Optical S
		if((PINE & JS_DOWN_PIN) == 0 && menuSelector == MENU_STEPPER){
			menu2Refl();
    117e:	d0 93 41 06 	sts	0x0641, r29	; 0x800641 <stepGoalPosition+0x1>
			menuSelector = MENU_OPTICALS;
    1182:	c0 93 40 06 	sts	0x0640, r28	; 0x800640 <stepGoalPosition>
		}
		else if((PINE & JS_DOWN_PIN) == 0 && menuSelector == MENU_HOME){
    1186:	10 92 27 02 	sts	0x0227, r1	; 0x800227 <reflQueueChange>
			mTimer(20);
			menu2Stepper();
			menuSelector = MENU_STEPPER;
		}
		//If Joystick Up -> highlight Stepper
		else if((PINB & JS_UP_PIN) == 0 && menuSelector == MENU_OPTICALS){
    118a:	78 94       	sei
    118c:	64 99       	sbic	0x0c, 4	; 12
    118e:	b9 cf       	rjmp	.-142    	; 0x1102 <main+0x16c>
		if((PINE & JS_DOWN_PIN) == 0 && menuSelector == MENU_STEPPER){
			menu2Refl();
			menuSelector = MENU_OPTICALS;
		}
		else if((PINE & JS_DOWN_PIN) == 0 && menuSelector == MENU_HOME){
			mTimer(20);
    1190:	82 b1       	in	r24, 0x02	; 2
    1192:	8f 73       	andi	r24, 0x3F	; 63
    1194:	82 b9       	out	0x02, r24	; 2
    1196:	8c 2d       	mov	r24, r12
    1198:	9d 2d       	mov	r25, r13
			while((PINB & JS_UP_PIN) == 0){};
			mTimer(20);
			menu2Stepper();
			menuSelector = MENU_STEPPER;
		}
		else if((PINB & JS_UP_PIN) == 0 && menuSelector == MENU_STEPPER){
    119a:	27 d7       	rcall	.+3662   	; 0x1fea <_Z6mTimeri>
    119c:	f8 94       	cli
    119e:	ca d1       	rcall	.+916    	; 0x1534 <_Z20menuDisplayItemCountv>
			menu2Stepper();
			menuSelector = MENU_STEPPER;
		}
		//If Joystick Up -> highlight Stepper
		else if((PINB & JS_UP_PIN) == 0 && menuSelector == MENU_OPTICALS){
			mTimer(20);
    11a0:	a3 cf       	rjmp	.-186    	; 0x10e8 <main+0x152>
    11a2:	be d0       	rcall	.+380    	; 0x1320 <_Z9menu2Reflv>
    11a4:	ce 2d       	mov	r28, r14
    11a6:	4e cf       	rjmp	.-356    	; 0x1044 <main+0xae>
    11a8:	65 9b       	sbis	0x0c, 5	; 12
		}
		else if((PINB & JS_UP_PIN) == 0 && menuSelector == MENU_STEPPER){
			menu2Home();
			menuSelector = MENU_HOME;
		}
		else if((PINB & JS_LEFT_PIN) == 0){
    11aa:	52 cf       	rjmp	.-348    	; 0x1050 <main+0xba>
    11ac:	1f 9b       	sbis	0x03, 7	; 3
    11ae:	5c cf       	rjmp	.-328    	; 0x1068 <main+0xd2>
			mTimer(20);
			menu2Stepper();
			menuSelector = MENU_STEPPER;
		}
		else if((PINB & JS_UP_PIN) == 0 && menuSelector == MENU_STEPPER){
			menu2Home();
    11b0:	04 c0       	rjmp	.+8      	; 0x11ba <main+0x224>
    11b2:	84 e1       	ldi	r24, 0x14	; 20
			menuSelector = MENU_HOME;
    11b4:	90 e0       	ldi	r25, 0x00	; 0
    11b6:	19 d7       	rcall	.+3634   	; 0x1fea <_Z6mTimeri>
    11b8:	4f cf       	rjmp	.-354    	; 0x1058 <main+0xc2>
    11ba:	1f 9b       	sbis	0x03, 7	; 3
    11bc:	61 cf       	rjmp	.-318    	; 0x1080 <main+0xea>
    11be:	04 c0       	rjmp	.+8      	; 0x11c8 <main+0x232>
    11c0:	84 e1       	ldi	r24, 0x14	; 20
    11c2:	90 e0       	ldi	r25, 0x00	; 0
    11c4:	12 d7       	rcall	.+3620   	; 0x1fea <_Z6mTimeri>
    11c6:	54 cf       	rjmp	.-344    	; 0x1070 <main+0xda>
    11c8:	1e 99       	sbic	0x03, 6	; 3
    11ca:	5e cf       	rjmp	.-324    	; 0x1088 <main+0xf2>
    11cc:	14 cf       	rjmp	.-472    	; 0xff6 <main+0x60>
    11ce:	64 d0       	rcall	.+200    	; 0x1298 <_Z9menu2Homev>
    11d0:	ca 2d       	mov	r28, r10
    11d2:	38 cf       	rjmp	.-400    	; 0x1044 <main+0xae>

000011d4 <_GLOBAL__sub_I_debug>:
extern volatile char frontOfQueue;
extern volatile char backOfQueue;
extern volatile unsigned char delayStepper;


Framebuffer myDisplay;
    11d4:	83 e3       	ldi	r24, 0x33	; 51
    11d6:	92 e0       	ldi	r25, 0x02	; 2
    11d8:	58 cd       	rjmp	.-1360   	; 0xc8a <_ZN11FramebufferC1Ev>
    11da:	08 95       	ret

000011dc <_Z10menu1Startv>:
extern volatile unsigned char aluminumCount;
extern volatile unsigned int debugCount;
extern volatile unsigned int adcAverage;
extern volatile unsigned char adcTotalCount;

void menu1Start(){
    11dc:	ef 92       	push	r14
    11de:	0f 93       	push	r16
	myDisplay.clear();
    11e0:	83 e3       	ldi	r24, 0x33	; 51
    11e2:	92 e0       	ldi	r25, 0x02	; 2
    11e4:	4b dd       	rcall	.-1386   	; 0xc7c <_ZN11Framebuffer5clearEv>
	myDisplay.drawString(0,0,"Item Sorter");
    11e6:	2a e3       	ldi	r18, 0x3A	; 58
    11e8:	31 e0       	ldi	r19, 0x01	; 1
    11ea:	40 e0       	ldi	r20, 0x00	; 0
    11ec:	50 e0       	ldi	r21, 0x00	; 0
    11ee:	60 e0       	ldi	r22, 0x00	; 0
    11f0:	70 e0       	ldi	r23, 0x00	; 0
    11f2:	83 e3       	ldi	r24, 0x33	; 51
    11f4:	92 e0       	ldi	r25, 0x02	; 2
    11f6:	eb dd       	rcall	.-1066   	; 0xdce <_ZN11Framebuffer10drawStringEiiPKc>
	myDisplay.drawRectangle(0,16,127,17,1);
    11f8:	ee 24       	eor	r14, r14
    11fa:	e3 94       	inc	r14
    11fc:	01 e1       	ldi	r16, 0x11	; 17
    11fe:	2f e7       	ldi	r18, 0x7F	; 127
    1200:	40 e1       	ldi	r20, 0x10	; 16
    1202:	60 e0       	ldi	r22, 0x00	; 0
    1204:	83 e3       	ldi	r24, 0x33	; 51
    1206:	92 e0       	ldi	r25, 0x02	; 2
    1208:	f6 dc       	rcall	.-1556   	; 0xbf6 <_ZN11Framebuffer13drawRectangleEhhhhh>
	myDisplay.drawString(0,20,">Start");
    120a:	26 e4       	ldi	r18, 0x46	; 70
    120c:	31 e0       	ldi	r19, 0x01	; 1
    120e:	44 e1       	ldi	r20, 0x14	; 20
    1210:	50 e0       	ldi	r21, 0x00	; 0
    1212:	60 e0       	ldi	r22, 0x00	; 0
    1214:	70 e0       	ldi	r23, 0x00	; 0
    1216:	83 e3       	ldi	r24, 0x33	; 51
    1218:	92 e0       	ldi	r25, 0x02	; 2
    121a:	d9 dd       	rcall	.-1102   	; 0xdce <_ZN11Framebuffer10drawStringEiiPKc>
	myDisplay.drawString(0,36," Calibrate");
    121c:	2d e4       	ldi	r18, 0x4D	; 77
    121e:	31 e0       	ldi	r19, 0x01	; 1
    1220:	44 e2       	ldi	r20, 0x24	; 36
    1222:	50 e0       	ldi	r21, 0x00	; 0
    1224:	60 e0       	ldi	r22, 0x00	; 0
    1226:	70 e0       	ldi	r23, 0x00	; 0
    1228:	83 e3       	ldi	r24, 0x33	; 51
    122a:	92 e0       	ldi	r25, 0x02	; 2
	myDisplay.show();
    122c:	d0 dd       	rcall	.-1120   	; 0xdce <_ZN11Framebuffer10drawStringEiiPKc>
    122e:	83 e3       	ldi	r24, 0x33	; 51
    1230:	92 e0       	ldi	r25, 0x02	; 2
    1232:	35 dd       	rcall	.-1430   	; 0xc9e <_ZN11Framebuffer4showEv>
}
    1234:	0f 91       	pop	r16
    1236:	ef 90       	pop	r14
    1238:	08 95       	ret

0000123a <_Z16menu1Calibrationv>:

void menu1Calibration(){
    123a:	ef 92       	push	r14
    123c:	0f 93       	push	r16
	myDisplay.clear();
    123e:	83 e3       	ldi	r24, 0x33	; 51
    1240:	92 e0       	ldi	r25, 0x02	; 2
    1242:	1c dd       	rcall	.-1480   	; 0xc7c <_ZN11Framebuffer5clearEv>
	myDisplay.drawString(0,0,"Item Sorter");
    1244:	2a e3       	ldi	r18, 0x3A	; 58
    1246:	31 e0       	ldi	r19, 0x01	; 1
    1248:	40 e0       	ldi	r20, 0x00	; 0
    124a:	50 e0       	ldi	r21, 0x00	; 0
    124c:	60 e0       	ldi	r22, 0x00	; 0
    124e:	70 e0       	ldi	r23, 0x00	; 0
    1250:	83 e3       	ldi	r24, 0x33	; 51
    1252:	92 e0       	ldi	r25, 0x02	; 2
    1254:	bc dd       	rcall	.-1160   	; 0xdce <_ZN11Framebuffer10drawStringEiiPKc>
	myDisplay.drawRectangle(0,16,127,17,1);
    1256:	ee 24       	eor	r14, r14
    1258:	e3 94       	inc	r14
    125a:	01 e1       	ldi	r16, 0x11	; 17
    125c:	2f e7       	ldi	r18, 0x7F	; 127
    125e:	40 e1       	ldi	r20, 0x10	; 16
    1260:	60 e0       	ldi	r22, 0x00	; 0
    1262:	83 e3       	ldi	r24, 0x33	; 51
    1264:	92 e0       	ldi	r25, 0x02	; 2
    1266:	c7 dc       	rcall	.-1650   	; 0xbf6 <_ZN11Framebuffer13drawRectangleEhhhhh>
	myDisplay.drawString(0,20," Start");
    1268:	28 e5       	ldi	r18, 0x58	; 88
    126a:	31 e0       	ldi	r19, 0x01	; 1
    126c:	44 e1       	ldi	r20, 0x14	; 20
    126e:	50 e0       	ldi	r21, 0x00	; 0
    1270:	60 e0       	ldi	r22, 0x00	; 0
    1272:	70 e0       	ldi	r23, 0x00	; 0
    1274:	83 e3       	ldi	r24, 0x33	; 51
    1276:	92 e0       	ldi	r25, 0x02	; 2
    1278:	aa dd       	rcall	.-1196   	; 0xdce <_ZN11Framebuffer10drawStringEiiPKc>
	myDisplay.drawString(0,36,">Calibrate");
    127a:	2f e5       	ldi	r18, 0x5F	; 95
    127c:	31 e0       	ldi	r19, 0x01	; 1
    127e:	44 e2       	ldi	r20, 0x24	; 36
    1280:	50 e0       	ldi	r21, 0x00	; 0
    1282:	60 e0       	ldi	r22, 0x00	; 0
    1284:	70 e0       	ldi	r23, 0x00	; 0
    1286:	83 e3       	ldi	r24, 0x33	; 51
    1288:	92 e0       	ldi	r25, 0x02	; 2
	myDisplay.show();
    128a:	a1 dd       	rcall	.-1214   	; 0xdce <_ZN11Framebuffer10drawStringEiiPKc>
    128c:	83 e3       	ldi	r24, 0x33	; 51
    128e:	92 e0       	ldi	r25, 0x02	; 2
    1290:	06 dd       	rcall	.-1524   	; 0xc9e <_ZN11Framebuffer4showEv>
}
    1292:	0f 91       	pop	r16
    1294:	ef 90       	pop	r14
    1296:	08 95       	ret

00001298 <_Z9menu2Homev>:
void menu2Home(){
	myDisplay.clear();
    1298:	83 e3       	ldi	r24, 0x33	; 51
    129a:	92 e0       	ldi	r25, 0x02	; 2
    129c:	ef dc       	rcall	.-1570   	; 0xc7c <_ZN11Framebuffer5clearEv>
	myDisplay.drawString(0,0,">Home Step");
    129e:	2a e6       	ldi	r18, 0x6A	; 106
    12a0:	31 e0       	ldi	r19, 0x01	; 1
    12a2:	40 e0       	ldi	r20, 0x00	; 0
    12a4:	50 e0       	ldi	r21, 0x00	; 0
    12a6:	60 e0       	ldi	r22, 0x00	; 0
    12a8:	70 e0       	ldi	r23, 0x00	; 0
    12aa:	83 e3       	ldi	r24, 0x33	; 51
    12ac:	92 e0       	ldi	r25, 0x02	; 2
    12ae:	8f dd       	rcall	.-1250   	; 0xdce <_ZN11Framebuffer10drawStringEiiPKc>
	myDisplay.drawString(0,16," Stepper");
    12b0:	25 e7       	ldi	r18, 0x75	; 117
    12b2:	31 e0       	ldi	r19, 0x01	; 1
    12b4:	40 e1       	ldi	r20, 0x10	; 16
    12b6:	50 e0       	ldi	r21, 0x00	; 0
    12b8:	60 e0       	ldi	r22, 0x00	; 0
    12ba:	70 e0       	ldi	r23, 0x00	; 0
    12bc:	83 e3       	ldi	r24, 0x33	; 51
    12be:	92 e0       	ldi	r25, 0x02	; 2
    12c0:	86 dd       	rcall	.-1268   	; 0xdce <_ZN11Framebuffer10drawStringEiiPKc>
	myDisplay.drawString(0,32," Optical S");
    12c2:	2e e7       	ldi	r18, 0x7E	; 126
    12c4:	31 e0       	ldi	r19, 0x01	; 1
    12c6:	40 e2       	ldi	r20, 0x20	; 32
    12c8:	50 e0       	ldi	r21, 0x00	; 0
    12ca:	60 e0       	ldi	r22, 0x00	; 0
    12cc:	70 e0       	ldi	r23, 0x00	; 0
    12ce:	83 e3       	ldi	r24, 0x33	; 51
    12d0:	92 e0       	ldi	r25, 0x02	; 2
	myDisplay.show();
    12d2:	7d dd       	rcall	.-1286   	; 0xdce <_ZN11Framebuffer10drawStringEiiPKc>
    12d4:	83 e3       	ldi	r24, 0x33	; 51
    12d6:	92 e0       	ldi	r25, 0x02	; 2
    12d8:	e2 cc       	rjmp	.-1596   	; 0xc9e <_ZN11Framebuffer4showEv>
    12da:	08 95       	ret

000012dc <_Z12menu2Stepperv>:
}
void menu2Stepper(){
	myDisplay.clear();
    12dc:	83 e3       	ldi	r24, 0x33	; 51
    12de:	92 e0       	ldi	r25, 0x02	; 2
    12e0:	cd dc       	rcall	.-1638   	; 0xc7c <_ZN11Framebuffer5clearEv>
	myDisplay.drawString(0,0," Home Step");
    12e2:	29 e8       	ldi	r18, 0x89	; 137
    12e4:	31 e0       	ldi	r19, 0x01	; 1
    12e6:	40 e0       	ldi	r20, 0x00	; 0
    12e8:	50 e0       	ldi	r21, 0x00	; 0
    12ea:	60 e0       	ldi	r22, 0x00	; 0
    12ec:	70 e0       	ldi	r23, 0x00	; 0
    12ee:	83 e3       	ldi	r24, 0x33	; 51
    12f0:	92 e0       	ldi	r25, 0x02	; 2
    12f2:	6d dd       	rcall	.-1318   	; 0xdce <_ZN11Framebuffer10drawStringEiiPKc>
	myDisplay.drawString(0,16,">Stepper");
    12f4:	24 e9       	ldi	r18, 0x94	; 148
    12f6:	31 e0       	ldi	r19, 0x01	; 1
    12f8:	40 e1       	ldi	r20, 0x10	; 16
    12fa:	50 e0       	ldi	r21, 0x00	; 0
    12fc:	60 e0       	ldi	r22, 0x00	; 0
    12fe:	70 e0       	ldi	r23, 0x00	; 0
    1300:	83 e3       	ldi	r24, 0x33	; 51
    1302:	92 e0       	ldi	r25, 0x02	; 2
    1304:	64 dd       	rcall	.-1336   	; 0xdce <_ZN11Framebuffer10drawStringEiiPKc>
	myDisplay.drawString(0,32," Optical S");
    1306:	2e e7       	ldi	r18, 0x7E	; 126
    1308:	31 e0       	ldi	r19, 0x01	; 1
    130a:	40 e2       	ldi	r20, 0x20	; 32
    130c:	50 e0       	ldi	r21, 0x00	; 0
    130e:	60 e0       	ldi	r22, 0x00	; 0
    1310:	70 e0       	ldi	r23, 0x00	; 0
    1312:	83 e3       	ldi	r24, 0x33	; 51
    1314:	92 e0       	ldi	r25, 0x02	; 2
	myDisplay.show();
    1316:	5b dd       	rcall	.-1354   	; 0xdce <_ZN11Framebuffer10drawStringEiiPKc>
    1318:	83 e3       	ldi	r24, 0x33	; 51
    131a:	92 e0       	ldi	r25, 0x02	; 2
    131c:	c0 cc       	rjmp	.-1664   	; 0xc9e <_ZN11Framebuffer4showEv>
    131e:	08 95       	ret

00001320 <_Z9menu2Reflv>:
}
void menu2Refl(){
	myDisplay.clear();
    1320:	83 e3       	ldi	r24, 0x33	; 51
    1322:	92 e0       	ldi	r25, 0x02	; 2
    1324:	ab dc       	rcall	.-1706   	; 0xc7c <_ZN11Framebuffer5clearEv>
	myDisplay.drawString(0,0," Home Step");
    1326:	29 e8       	ldi	r18, 0x89	; 137
    1328:	31 e0       	ldi	r19, 0x01	; 1
    132a:	40 e0       	ldi	r20, 0x00	; 0
    132c:	50 e0       	ldi	r21, 0x00	; 0
    132e:	60 e0       	ldi	r22, 0x00	; 0
    1330:	70 e0       	ldi	r23, 0x00	; 0
    1332:	83 e3       	ldi	r24, 0x33	; 51
    1334:	92 e0       	ldi	r25, 0x02	; 2
    1336:	4b dd       	rcall	.-1386   	; 0xdce <_ZN11Framebuffer10drawStringEiiPKc>
	myDisplay.drawString(0,16," Stepper");
    1338:	25 e7       	ldi	r18, 0x75	; 117
    133a:	31 e0       	ldi	r19, 0x01	; 1
    133c:	40 e1       	ldi	r20, 0x10	; 16
    133e:	50 e0       	ldi	r21, 0x00	; 0
    1340:	60 e0       	ldi	r22, 0x00	; 0
    1342:	70 e0       	ldi	r23, 0x00	; 0
    1344:	83 e3       	ldi	r24, 0x33	; 51
    1346:	92 e0       	ldi	r25, 0x02	; 2
    1348:	42 dd       	rcall	.-1404   	; 0xdce <_ZN11Framebuffer10drawStringEiiPKc>
	myDisplay.drawString(0,32,">Optical S");
    134a:	2d e9       	ldi	r18, 0x9D	; 157
    134c:	31 e0       	ldi	r19, 0x01	; 1
    134e:	40 e2       	ldi	r20, 0x20	; 32
    1350:	50 e0       	ldi	r21, 0x00	; 0
    1352:	60 e0       	ldi	r22, 0x00	; 0
    1354:	70 e0       	ldi	r23, 0x00	; 0
    1356:	83 e3       	ldi	r24, 0x33	; 51
    1358:	92 e0       	ldi	r25, 0x02	; 2
	myDisplay.show();
    135a:	39 dd       	rcall	.-1422   	; 0xdce <_ZN11Framebuffer10drawStringEiiPKc>
    135c:	83 e3       	ldi	r24, 0x33	; 51
    135e:	92 e0       	ldi	r25, 0x02	; 2
    1360:	9e cc       	rjmp	.-1732   	; 0xc9e <_ZN11Framebuffer4showEv>
    1362:	08 95       	ret

00001364 <_Z10menuDebugQv>:
}

void menuDebugQ(){
    1364:	ef 92       	push	r14
    1366:	0f 93       	push	r16
    1368:	cf 93       	push	r28
    136a:	df 93       	push	r29
	myDisplay.clear();
    136c:	83 e3       	ldi	r24, 0x33	; 51
    136e:	92 e0       	ldi	r25, 0x02	; 2
    1370:	85 dc       	rcall	.-1782   	; 0xc7c <_ZN11Framebuffer5clearEv>
	myDisplay.drawString(0,0,"Queue");
    1372:	28 ea       	ldi	r18, 0xA8	; 168
    1374:	31 e0       	ldi	r19, 0x01	; 1
    1376:	40 e0       	ldi	r20, 0x00	; 0
    1378:	50 e0       	ldi	r21, 0x00	; 0
    137a:	60 e0       	ldi	r22, 0x00	; 0
    137c:	70 e0       	ldi	r23, 0x00	; 0
    137e:	83 e3       	ldi	r24, 0x33	; 51
    1380:	92 e0       	ldi	r25, 0x02	; 2
    1382:	25 dd       	rcall	.-1462   	; 0xdce <_ZN11Framebuffer10drawStringEiiPKc>
	//myDisplay.drawNumber(0,0,adcAverage);//lowestRefl); ****
	myDisplay.drawNumber(72,0,lowestRefl); 
    1384:	20 91 02 01 	lds	r18, 0x0102	; 0x800102 <lowestRefl>
    1388:	30 91 03 01 	lds	r19, 0x0103	; 0x800103 <lowestRefl+0x1>
    138c:	40 e0       	ldi	r20, 0x00	; 0
    138e:	50 e0       	ldi	r21, 0x00	; 0
    1390:	68 e4       	ldi	r22, 0x48	; 72
    1392:	70 e0       	ldi	r23, 0x00	; 0
    1394:	83 e3       	ldi	r24, 0x33	; 51
    1396:	92 e0       	ldi	r25, 0x02	; 2
    1398:	50 dd       	rcall	.-1376   	; 0xe3a <_ZN11Framebuffer10drawNumberEiii>
	myDisplay.drawRectangle(0,16,127,17,1);
    139a:	ee 24       	eor	r14, r14
    139c:	e3 94       	inc	r14
    139e:	01 e1       	ldi	r16, 0x11	; 17
    13a0:	2f e7       	ldi	r18, 0x7F	; 127
    13a2:	40 e1       	ldi	r20, 0x10	; 16
    13a4:	60 e0       	ldi	r22, 0x00	; 0
    13a6:	83 e3       	ldi	r24, 0x33	; 51
    13a8:	92 e0       	ldi	r25, 0x02	; 2
    13aa:	25 dc       	rcall	.-1974   	; 0xbf6 <_ZN11Framebuffer13drawRectangleEhhhhh>
	myDisplay.drawNumber(0,20,reflQueue[0]); 
    13ac:	cb e2       	ldi	r28, 0x2B	; 43
    13ae:	d2 e0       	ldi	r29, 0x02	; 2
    13b0:	28 81       	ld	r18, Y
    13b2:	30 e0       	ldi	r19, 0x00	; 0
    13b4:	44 e1       	ldi	r20, 0x14	; 20
    13b6:	50 e0       	ldi	r21, 0x00	; 0
    13b8:	60 e0       	ldi	r22, 0x00	; 0
    13ba:	70 e0       	ldi	r23, 0x00	; 0
    13bc:	83 e3       	ldi	r24, 0x33	; 51
    13be:	92 e0       	ldi	r25, 0x02	; 2
    13c0:	3c dd       	rcall	.-1416   	; 0xe3a <_ZN11Framebuffer10drawNumberEiii>
	myDisplay.drawNumber(12,20,reflQueue[1]);
    13c2:	29 81       	ldd	r18, Y+1	; 0x01
    13c4:	30 e0       	ldi	r19, 0x00	; 0
    13c6:	44 e1       	ldi	r20, 0x14	; 20
    13c8:	50 e0       	ldi	r21, 0x00	; 0
    13ca:	6c e0       	ldi	r22, 0x0C	; 12
    13cc:	70 e0       	ldi	r23, 0x00	; 0
    13ce:	83 e3       	ldi	r24, 0x33	; 51
    13d0:	92 e0       	ldi	r25, 0x02	; 2
    13d2:	33 dd       	rcall	.-1434   	; 0xe3a <_ZN11Framebuffer10drawNumberEiii>
	myDisplay.drawNumber(24,20,reflQueue[2]);
    13d4:	2a 81       	ldd	r18, Y+2	; 0x02
    13d6:	30 e0       	ldi	r19, 0x00	; 0
    13d8:	44 e1       	ldi	r20, 0x14	; 20
    13da:	50 e0       	ldi	r21, 0x00	; 0
    13dc:	68 e1       	ldi	r22, 0x18	; 24
    13de:	70 e0       	ldi	r23, 0x00	; 0
    13e0:	83 e3       	ldi	r24, 0x33	; 51
    13e2:	92 e0       	ldi	r25, 0x02	; 2
    13e4:	2a dd       	rcall	.-1452   	; 0xe3a <_ZN11Framebuffer10drawNumberEiii>
	myDisplay.drawNumber(36,20,reflQueue[3]);
    13e6:	2b 81       	ldd	r18, Y+3	; 0x03
    13e8:	30 e0       	ldi	r19, 0x00	; 0
    13ea:	44 e1       	ldi	r20, 0x14	; 20
    13ec:	50 e0       	ldi	r21, 0x00	; 0
    13ee:	64 e2       	ldi	r22, 0x24	; 36
    13f0:	70 e0       	ldi	r23, 0x00	; 0
    13f2:	83 e3       	ldi	r24, 0x33	; 51
    13f4:	92 e0       	ldi	r25, 0x02	; 2
	myDisplay.drawNumber(48,20,reflQueue[4]);
    13f6:	21 dd       	rcall	.-1470   	; 0xe3a <_ZN11Framebuffer10drawNumberEiii>
    13f8:	2c 81       	ldd	r18, Y+4	; 0x04
    13fa:	30 e0       	ldi	r19, 0x00	; 0
    13fc:	44 e1       	ldi	r20, 0x14	; 20
    13fe:	50 e0       	ldi	r21, 0x00	; 0
    1400:	60 e3       	ldi	r22, 0x30	; 48
    1402:	70 e0       	ldi	r23, 0x00	; 0
    1404:	83 e3       	ldi	r24, 0x33	; 51
	myDisplay.drawNumber(60,20,reflQueue[5]);
    1406:	92 e0       	ldi	r25, 0x02	; 2
    1408:	18 dd       	rcall	.-1488   	; 0xe3a <_ZN11Framebuffer10drawNumberEiii>
    140a:	2d 81       	ldd	r18, Y+5	; 0x05
    140c:	30 e0       	ldi	r19, 0x00	; 0
    140e:	44 e1       	ldi	r20, 0x14	; 20
    1410:	50 e0       	ldi	r21, 0x00	; 0
    1412:	6c e3       	ldi	r22, 0x3C	; 60
    1414:	70 e0       	ldi	r23, 0x00	; 0
    1416:	83 e3       	ldi	r24, 0x33	; 51
	myDisplay.drawNumber(72,20,reflQueue[6]);
    1418:	92 e0       	ldi	r25, 0x02	; 2
    141a:	0f dd       	rcall	.-1506   	; 0xe3a <_ZN11Framebuffer10drawNumberEiii>
    141c:	2e 81       	ldd	r18, Y+6	; 0x06
    141e:	30 e0       	ldi	r19, 0x00	; 0
    1420:	44 e1       	ldi	r20, 0x14	; 20
    1422:	50 e0       	ldi	r21, 0x00	; 0
    1424:	68 e4       	ldi	r22, 0x48	; 72
    1426:	70 e0       	ldi	r23, 0x00	; 0
    1428:	83 e3       	ldi	r24, 0x33	; 51
	myDisplay.drawNumber(84,20,reflQueue[7]);
    142a:	92 e0       	ldi	r25, 0x02	; 2
    142c:	06 dd       	rcall	.-1524   	; 0xe3a <_ZN11Framebuffer10drawNumberEiii>
    142e:	2f 81       	ldd	r18, Y+7	; 0x07
    1430:	30 e0       	ldi	r19, 0x00	; 0
    1432:	44 e1       	ldi	r20, 0x14	; 20
    1434:	50 e0       	ldi	r21, 0x00	; 0
    1436:	64 e5       	ldi	r22, 0x54	; 84
    1438:	70 e0       	ldi	r23, 0x00	; 0
    143a:	83 e3       	ldi	r24, 0x33	; 51
	myDisplay.drawNumber(108,20,reflQueueCount);
    143c:	92 e0       	ldi	r25, 0x02	; 2
    143e:	fd dc       	rcall	.-1542   	; 0xe3a <_ZN11Framebuffer10drawNumberEiii>
    1440:	20 91 2a 02 	lds	r18, 0x022A	; 0x80022a <reflQueueCount>
    1444:	30 e0       	ldi	r19, 0x00	; 0
    1446:	44 e1       	ldi	r20, 0x14	; 20
    1448:	50 e0       	ldi	r21, 0x00	; 0
    144a:	6c e6       	ldi	r22, 0x6C	; 108
    144c:	70 e0       	ldi	r23, 0x00	; 0
    144e:	83 e3       	ldi	r24, 0x33	; 51
    1450:	92 e0       	ldi	r25, 0x02	; 2
	myDisplay.drawString(12*frontOfQueue,36,"f");
    1452:	f3 dc       	rcall	.-1562   	; 0xe3a <_ZN11Framebuffer10drawNumberEiii>
    1454:	60 91 29 02 	lds	r22, 0x0229	; 0x800229 <frontOfQueue>
    1458:	70 e0       	ldi	r23, 0x00	; 0
    145a:	cb 01       	movw	r24, r22
    145c:	88 0f       	add	r24, r24
    145e:	99 1f       	adc	r25, r25
    1460:	68 0f       	add	r22, r24
    1462:	79 1f       	adc	r23, r25
    1464:	66 0f       	add	r22, r22
    1466:	77 1f       	adc	r23, r23
    1468:	66 0f       	add	r22, r22
    146a:	77 1f       	adc	r23, r23
    146c:	2e ea       	ldi	r18, 0xAE	; 174
    146e:	31 e0       	ldi	r19, 0x01	; 1
    1470:	44 e2       	ldi	r20, 0x24	; 36
    1472:	50 e0       	ldi	r21, 0x00	; 0
    1474:	83 e3       	ldi	r24, 0x33	; 51
    1476:	92 e0       	ldi	r25, 0x02	; 2
	myDisplay.drawString(12*(backOfQueue),36,"b");
    1478:	aa dc       	rcall	.-1708   	; 0xdce <_ZN11Framebuffer10drawStringEiiPKc>
    147a:	60 91 28 02 	lds	r22, 0x0228	; 0x800228 <backOfQueue>
    147e:	70 e0       	ldi	r23, 0x00	; 0
    1480:	cb 01       	movw	r24, r22
    1482:	88 0f       	add	r24, r24
    1484:	99 1f       	adc	r25, r25
    1486:	68 0f       	add	r22, r24
    1488:	79 1f       	adc	r23, r25
    148a:	66 0f       	add	r22, r22
    148c:	77 1f       	adc	r23, r23
    148e:	66 0f       	add	r22, r22
    1490:	77 1f       	adc	r23, r23
    1492:	20 eb       	ldi	r18, 0xB0	; 176
    1494:	31 e0       	ldi	r19, 0x01	; 1
    1496:	44 e2       	ldi	r20, 0x24	; 36
    1498:	50 e0       	ldi	r21, 0x00	; 0
    149a:	83 e3       	ldi	r24, 0x33	; 51
	myDisplay.show();
    149c:	92 e0       	ldi	r25, 0x02	; 2
    149e:	97 dc       	rcall	.-1746   	; 0xdce <_ZN11Framebuffer10drawStringEiiPKc>
    14a0:	83 e3       	ldi	r24, 0x33	; 51
    14a2:	92 e0       	ldi	r25, 0x02	; 2
}
    14a4:	fc db       	rcall	.-2056   	; 0xc9e <_ZN11Framebuffer4showEv>
    14a6:	df 91       	pop	r29
    14a8:	cf 91       	pop	r28
    14aa:	0f 91       	pop	r16
    14ac:	ef 90       	pop	r14
    14ae:	08 95       	ret

000014b0 <_Z10menuDebugSv>:

void menuDebugS(){
	myDisplay.clear();
    14b0:	83 e3       	ldi	r24, 0x33	; 51
    14b2:	92 e0       	ldi	r25, 0x02	; 2
    14b4:	e3 db       	rcall	.-2106   	; 0xc7c <_ZN11Framebuffer5clearEv>
	myDisplay.drawString(0,0,"Goal:");
    14b6:	22 eb       	ldi	r18, 0xB2	; 178
    14b8:	31 e0       	ldi	r19, 0x01	; 1
    14ba:	40 e0       	ldi	r20, 0x00	; 0
    14bc:	50 e0       	ldi	r21, 0x00	; 0
    14be:	60 e0       	ldi	r22, 0x00	; 0
    14c0:	70 e0       	ldi	r23, 0x00	; 0
    14c2:	83 e3       	ldi	r24, 0x33	; 51
    14c4:	92 e0       	ldi	r25, 0x02	; 2
    14c6:	83 dc       	rcall	.-1786   	; 0xdce <_ZN11Framebuffer10drawStringEiiPKc>
	myDisplay.drawNumber(60,0,stepGoalPosition);
    14c8:	20 91 40 06 	lds	r18, 0x0640	; 0x800640 <stepGoalPosition>
    14cc:	30 91 41 06 	lds	r19, 0x0641	; 0x800641 <stepGoalPosition+0x1>
    14d0:	40 e0       	ldi	r20, 0x00	; 0
    14d2:	50 e0       	ldi	r21, 0x00	; 0
    14d4:	6c e3       	ldi	r22, 0x3C	; 60
    14d6:	70 e0       	ldi	r23, 0x00	; 0
    14d8:	83 e3       	ldi	r24, 0x33	; 51
    14da:	92 e0       	ldi	r25, 0x02	; 2
    14dc:	ae dc       	rcall	.-1700   	; 0xe3a <_ZN11Framebuffer10drawNumberEiii>
	myDisplay.drawString(0,16,"Cur:");
    14de:	28 eb       	ldi	r18, 0xB8	; 184
    14e0:	31 e0       	ldi	r19, 0x01	; 1
    14e2:	40 e1       	ldi	r20, 0x10	; 16
    14e4:	50 e0       	ldi	r21, 0x00	; 0
    14e6:	60 e0       	ldi	r22, 0x00	; 0
    14e8:	70 e0       	ldi	r23, 0x00	; 0
    14ea:	83 e3       	ldi	r24, 0x33	; 51
    14ec:	92 e0       	ldi	r25, 0x02	; 2
    14ee:	6f dc       	rcall	.-1826   	; 0xdce <_ZN11Framebuffer10drawStringEiiPKc>
	myDisplay.drawNumber(60,16,stepGoalPosition);
    14f0:	20 91 40 06 	lds	r18, 0x0640	; 0x800640 <stepGoalPosition>
    14f4:	30 91 41 06 	lds	r19, 0x0641	; 0x800641 <stepGoalPosition+0x1>
    14f8:	40 e1       	ldi	r20, 0x10	; 16
    14fa:	50 e0       	ldi	r21, 0x00	; 0
    14fc:	6c e3       	ldi	r22, 0x3C	; 60
    14fe:	70 e0       	ldi	r23, 0x00	; 0
    1500:	83 e3       	ldi	r24, 0x33	; 51
    1502:	92 e0       	ldi	r25, 0x02	; 2
    1504:	9a dc       	rcall	.-1740   	; 0xe3a <_ZN11Framebuffer10drawNumberEiii>
	myDisplay.drawString(0,32,"Delay:");
    1506:	2d eb       	ldi	r18, 0xBD	; 189
    1508:	31 e0       	ldi	r19, 0x01	; 1
    150a:	40 e2       	ldi	r20, 0x20	; 32
    150c:	50 e0       	ldi	r21, 0x00	; 0
    150e:	60 e0       	ldi	r22, 0x00	; 0
    1510:	70 e0       	ldi	r23, 0x00	; 0
    1512:	83 e3       	ldi	r24, 0x33	; 51
    1514:	92 e0       	ldi	r25, 0x02	; 2
    1516:	5b dc       	rcall	.-1866   	; 0xdce <_ZN11Framebuffer10drawStringEiiPKc>
	myDisplay.drawNumber(72,32,stepperDelay);
    1518:	20 91 0f 01 	lds	r18, 0x010F	; 0x80010f <stepperDelay>
    151c:	30 e0       	ldi	r19, 0x00	; 0
    151e:	40 e2       	ldi	r20, 0x20	; 32
    1520:	50 e0       	ldi	r21, 0x00	; 0
    1522:	68 e4       	ldi	r22, 0x48	; 72
    1524:	70 e0       	ldi	r23, 0x00	; 0
    1526:	83 e3       	ldi	r24, 0x33	; 51
    1528:	92 e0       	ldi	r25, 0x02	; 2
	myDisplay.show();
    152a:	87 dc       	rcall	.-1778   	; 0xe3a <_ZN11Framebuffer10drawNumberEiii>
    152c:	83 e3       	ldi	r24, 0x33	; 51
    152e:	92 e0       	ldi	r25, 0x02	; 2
    1530:	b6 cb       	rjmp	.-2196   	; 0xc9e <_ZN11Framebuffer4showEv>
    1532:	08 95       	ret

00001534 <_Z20menuDisplayItemCountv>:
}

void menuDisplayItemCount(){
	myDisplay.clear();
    1534:	83 e3       	ldi	r24, 0x33	; 51
    1536:	92 e0       	ldi	r25, 0x02	; 2
    1538:	a1 db       	rcall	.-2238   	; 0xc7c <_ZN11Framebuffer5clearEv>
	myDisplay.drawString(column(1),row(1),"On Belt:");
    153a:	24 ec       	ldi	r18, 0xC4	; 196
    153c:	31 e0       	ldi	r19, 0x01	; 1
    153e:	40 e0       	ldi	r20, 0x00	; 0
    1540:	50 e0       	ldi	r21, 0x00	; 0
    1542:	60 e0       	ldi	r22, 0x00	; 0
    1544:	70 e0       	ldi	r23, 0x00	; 0
    1546:	83 e3       	ldi	r24, 0x33	; 51
    1548:	92 e0       	ldi	r25, 0x02	; 2
    154a:	41 dc       	rcall	.-1918   	; 0xdce <_ZN11Framebuffer10drawStringEiiPKc>
	myDisplay.drawNumber(column(9),row(1),reflQueueCount);
    154c:	20 91 2a 02 	lds	r18, 0x022A	; 0x80022a <reflQueueCount>
    1550:	30 e0       	ldi	r19, 0x00	; 0
    1552:	40 e0       	ldi	r20, 0x00	; 0
    1554:	50 e0       	ldi	r21, 0x00	; 0
    1556:	60 e6       	ldi	r22, 0x60	; 96
    1558:	70 e0       	ldi	r23, 0x00	; 0
    155a:	83 e3       	ldi	r24, 0x33	; 51
    155c:	92 e0       	ldi	r25, 0x02	; 2
    155e:	6d dc       	rcall	.-1830   	; 0xe3a <_ZN11Framebuffer10drawNumberEiii>
	myDisplay.drawString(column(1),row(2),"TSorted:");
    1560:	2d ec       	ldi	r18, 0xCD	; 205
    1562:	31 e0       	ldi	r19, 0x01	; 1
    1564:	40 e1       	ldi	r20, 0x10	; 16
    1566:	50 e0       	ldi	r21, 0x00	; 0
    1568:	60 e0       	ldi	r22, 0x00	; 0
    156a:	70 e0       	ldi	r23, 0x00	; 0
    156c:	83 e3       	ldi	r24, 0x33	; 51
    156e:	92 e0       	ldi	r25, 0x02	; 2
    1570:	2e dc       	rcall	.-1956   	; 0xdce <_ZN11Framebuffer10drawStringEiiPKc>
	myDisplay.drawNumber(column(9),row(2),(reflQueueCount+blackCount+whiteCount+steelCount+aluminumCount));
    1572:	50 91 2a 02 	lds	r21, 0x022A	; 0x80022a <reflQueueCount>
    1576:	20 91 26 02 	lds	r18, 0x0226	; 0x800226 <blackCount>
    157a:	40 91 25 02 	lds	r20, 0x0225	; 0x800225 <whiteCount>
    157e:	90 91 24 02 	lds	r25, 0x0224	; 0x800224 <steelCount>
    1582:	80 91 23 02 	lds	r24, 0x0223	; 0x800223 <aluminumCount>
    1586:	30 e0       	ldi	r19, 0x00	; 0
    1588:	25 0f       	add	r18, r21
    158a:	31 1d       	adc	r19, r1
    158c:	24 0f       	add	r18, r20
    158e:	31 1d       	adc	r19, r1
    1590:	29 0f       	add	r18, r25
    1592:	31 1d       	adc	r19, r1
    1594:	28 0f       	add	r18, r24
    1596:	31 1d       	adc	r19, r1
    1598:	40 e1       	ldi	r20, 0x10	; 16
    159a:	50 e0       	ldi	r21, 0x00	; 0
    159c:	60 e6       	ldi	r22, 0x60	; 96
    159e:	70 e0       	ldi	r23, 0x00	; 0
    15a0:	83 e3       	ldi	r24, 0x33	; 51
    15a2:	92 e0       	ldi	r25, 0x02	; 2
    15a4:	4a dc       	rcall	.-1900   	; 0xe3a <_ZN11Framebuffer10drawNumberEiii>
	myDisplay.drawString(column(1),row(3),"B=");
    15a6:	26 ed       	ldi	r18, 0xD6	; 214
    15a8:	31 e0       	ldi	r19, 0x01	; 1
    15aa:	40 e2       	ldi	r20, 0x20	; 32
    15ac:	50 e0       	ldi	r21, 0x00	; 0
    15ae:	60 e0       	ldi	r22, 0x00	; 0
    15b0:	70 e0       	ldi	r23, 0x00	; 0
    15b2:	83 e3       	ldi	r24, 0x33	; 51
    15b4:	92 e0       	ldi	r25, 0x02	; 2
    15b6:	0b dc       	rcall	.-2026   	; 0xdce <_ZN11Framebuffer10drawStringEiiPKc>
	myDisplay.drawNumber(column(3),row(3),blackCount);
    15b8:	20 91 26 02 	lds	r18, 0x0226	; 0x800226 <blackCount>
    15bc:	30 e0       	ldi	r19, 0x00	; 0
    15be:	40 e2       	ldi	r20, 0x20	; 32
    15c0:	50 e0       	ldi	r21, 0x00	; 0
    15c2:	68 e1       	ldi	r22, 0x18	; 24
    15c4:	70 e0       	ldi	r23, 0x00	; 0
    15c6:	83 e3       	ldi	r24, 0x33	; 51
    15c8:	92 e0       	ldi	r25, 0x02	; 2
    15ca:	37 dc       	rcall	.-1938   	; 0xe3a <_ZN11Framebuffer10drawNumberEiii>
	myDisplay.drawString(column(6),row(3),"W=");
    15cc:	29 ed       	ldi	r18, 0xD9	; 217
    15ce:	31 e0       	ldi	r19, 0x01	; 1
    15d0:	40 e2       	ldi	r20, 0x20	; 32
    15d2:	50 e0       	ldi	r21, 0x00	; 0
    15d4:	6c e3       	ldi	r22, 0x3C	; 60
    15d6:	70 e0       	ldi	r23, 0x00	; 0
    15d8:	83 e3       	ldi	r24, 0x33	; 51
    15da:	92 e0       	ldi	r25, 0x02	; 2
    15dc:	f8 db       	rcall	.-2064   	; 0xdce <_ZN11Framebuffer10drawStringEiiPKc>
	myDisplay.drawNumber(column(8),row(3),whiteCount);
    15de:	20 91 25 02 	lds	r18, 0x0225	; 0x800225 <whiteCount>
    15e2:	30 e0       	ldi	r19, 0x00	; 0
    15e4:	40 e2       	ldi	r20, 0x20	; 32
    15e6:	50 e0       	ldi	r21, 0x00	; 0
    15e8:	64 e5       	ldi	r22, 0x54	; 84
    15ea:	70 e0       	ldi	r23, 0x00	; 0
    15ec:	83 e3       	ldi	r24, 0x33	; 51
    15ee:	92 e0       	ldi	r25, 0x02	; 2
	myDisplay.drawString(column(1),row(4),"S=");
    15f0:	24 dc       	rcall	.-1976   	; 0xe3a <_ZN11Framebuffer10drawNumberEiii>
    15f2:	2c ed       	ldi	r18, 0xDC	; 220
    15f4:	31 e0       	ldi	r19, 0x01	; 1
    15f6:	40 e3       	ldi	r20, 0x30	; 48
    15f8:	50 e0       	ldi	r21, 0x00	; 0
    15fa:	60 e0       	ldi	r22, 0x00	; 0
    15fc:	70 e0       	ldi	r23, 0x00	; 0
    15fe:	83 e3       	ldi	r24, 0x33	; 51
    1600:	92 e0       	ldi	r25, 0x02	; 2
	myDisplay.drawNumber(column(3),row(4),steelCount);
    1602:	e5 db       	rcall	.-2102   	; 0xdce <_ZN11Framebuffer10drawStringEiiPKc>
    1604:	20 91 24 02 	lds	r18, 0x0224	; 0x800224 <steelCount>
    1608:	30 e0       	ldi	r19, 0x00	; 0
    160a:	40 e3       	ldi	r20, 0x30	; 48
    160c:	50 e0       	ldi	r21, 0x00	; 0
    160e:	68 e1       	ldi	r22, 0x18	; 24
    1610:	70 e0       	ldi	r23, 0x00	; 0
    1612:	83 e3       	ldi	r24, 0x33	; 51
    1614:	92 e0       	ldi	r25, 0x02	; 2
	myDisplay.drawString(column(6),row(4),"A=");
    1616:	11 dc       	rcall	.-2014   	; 0xe3a <_ZN11Framebuffer10drawNumberEiii>
    1618:	2f ed       	ldi	r18, 0xDF	; 223
    161a:	31 e0       	ldi	r19, 0x01	; 1
    161c:	40 e3       	ldi	r20, 0x30	; 48
    161e:	50 e0       	ldi	r21, 0x00	; 0
    1620:	6c e3       	ldi	r22, 0x3C	; 60
    1622:	70 e0       	ldi	r23, 0x00	; 0
    1624:	83 e3       	ldi	r24, 0x33	; 51
	myDisplay.drawNumber(column(8),row(4),aluminumCount);
    1626:	92 e0       	ldi	r25, 0x02	; 2
    1628:	d2 db       	rcall	.-2140   	; 0xdce <_ZN11Framebuffer10drawStringEiiPKc>
    162a:	20 91 23 02 	lds	r18, 0x0223	; 0x800223 <aluminumCount>
    162e:	30 e0       	ldi	r19, 0x00	; 0
    1630:	40 e3       	ldi	r20, 0x30	; 48
    1632:	50 e0       	ldi	r21, 0x00	; 0
    1634:	64 e5       	ldi	r22, 0x54	; 84
    1636:	70 e0       	ldi	r23, 0x00	; 0
    1638:	83 e3       	ldi	r24, 0x33	; 51
	myDisplay.show();
    163a:	92 e0       	ldi	r25, 0x02	; 2
    163c:	fe db       	rcall	.-2052   	; 0xe3a <_ZN11Framebuffer10drawNumberEiii>
    163e:	83 e3       	ldi	r24, 0x33	; 51
    1640:	92 e0       	ldi	r25, 0x02	; 2
    1642:	2d cb       	rjmp	.-2470   	; 0xc9e <_ZN11Framebuffer4showEv>
    1644:	08 95       	ret

00001646 <_Z16menuDisplayValuehPKc>:
}

//Used to display one value
void menuDisplayValue(unsigned char value, const char *label){
    1646:	0f 93       	push	r16
    1648:	1f 93       	push	r17
    164a:	cf 93       	push	r28
    164c:	c8 2f       	mov	r28, r24
    164e:	8b 01       	movw	r16, r22
	myDisplay.clear();
    1650:	83 e3       	ldi	r24, 0x33	; 51
    1652:	92 e0       	ldi	r25, 0x02	; 2
    1654:	13 db       	rcall	.-2522   	; 0xc7c <_ZN11Framebuffer5clearEv>
	myDisplay.drawString(column(1),row(1),label);
    1656:	98 01       	movw	r18, r16
    1658:	40 e0       	ldi	r20, 0x00	; 0
    165a:	50 e0       	ldi	r21, 0x00	; 0
    165c:	60 e0       	ldi	r22, 0x00	; 0
    165e:	70 e0       	ldi	r23, 0x00	; 0
    1660:	83 e3       	ldi	r24, 0x33	; 51
    1662:	92 e0       	ldi	r25, 0x02	; 2
    1664:	b4 db       	rcall	.-2200   	; 0xdce <_ZN11Framebuffer10drawStringEiiPKc>
	myDisplay.drawNumber(column(1),row(2),value);
    1666:	2c 2f       	mov	r18, r28
    1668:	30 e0       	ldi	r19, 0x00	; 0
    166a:	40 e1       	ldi	r20, 0x10	; 16
    166c:	50 e0       	ldi	r21, 0x00	; 0
    166e:	60 e0       	ldi	r22, 0x00	; 0
    1670:	70 e0       	ldi	r23, 0x00	; 0
    1672:	83 e3       	ldi	r24, 0x33	; 51
    1674:	92 e0       	ldi	r25, 0x02	; 2
	myDisplay.show();
    1676:	e1 db       	rcall	.-2110   	; 0xe3a <_ZN11Framebuffer10drawNumberEiii>
    1678:	83 e3       	ldi	r24, 0x33	; 51
    167a:	92 e0       	ldi	r25, 0x02	; 2
    167c:	10 db       	rcall	.-2528   	; 0xc9e <_ZN11Framebuffer4showEv>
}
    167e:	cf 91       	pop	r28
    1680:	1f 91       	pop	r17
    1682:	0f 91       	pop	r16
    1684:	08 95       	ret

00001686 <_Z12menu3Displayh>:

void menu3Display(unsigned char display){
    1686:	cf 93       	push	r28
    1688:	c8 2f       	mov	r28, r24
	myDisplay.clear();
    168a:	83 e3       	ldi	r24, 0x33	; 51
    168c:	92 e0       	ldi	r25, 0x02	; 2
    168e:	f6 da       	rcall	.-2580   	; 0xc7c <_ZN11Framebuffer5clearEv>
	if(display == 0){
    1690:	c1 11       	cpse	r28, r1
    1692:	1c c0       	rjmp	.+56     	; 0x16cc <_Z12menu3Displayh+0x46>
		myDisplay.drawString(column(1),row(1),">Max");
    1694:	22 ee       	ldi	r18, 0xE2	; 226
    1696:	31 e0       	ldi	r19, 0x01	; 1
    1698:	40 e0       	ldi	r20, 0x00	; 0
    169a:	50 e0       	ldi	r21, 0x00	; 0
    169c:	60 e0       	ldi	r22, 0x00	; 0
    169e:	70 e0       	ldi	r23, 0x00	; 0
    16a0:	83 e3       	ldi	r24, 0x33	; 51
    16a2:	92 e0       	ldi	r25, 0x02	; 2
    16a4:	94 db       	rcall	.-2264   	; 0xdce <_ZN11Framebuffer10drawStringEiiPKc>
		myDisplay.drawString(column(1),row(2)," Inc");
    16a6:	27 ee       	ldi	r18, 0xE7	; 231
    16a8:	31 e0       	ldi	r19, 0x01	; 1
    16aa:	40 e1       	ldi	r20, 0x10	; 16
    16ac:	50 e0       	ldi	r21, 0x00	; 0
    16ae:	60 e0       	ldi	r22, 0x00	; 0
    16b0:	70 e0       	ldi	r23, 0x00	; 0
    16b2:	83 e3       	ldi	r24, 0x33	; 51
    16b4:	92 e0       	ldi	r25, 0x02	; 2
    16b6:	8b db       	rcall	.-2282   	; 0xdce <_ZN11Framebuffer10drawStringEiiPKc>
		myDisplay.drawString(column(1),row(3)," Min");
    16b8:	2c ee       	ldi	r18, 0xEC	; 236
    16ba:	31 e0       	ldi	r19, 0x01	; 1
    16bc:	40 e2       	ldi	r20, 0x20	; 32
    16be:	50 e0       	ldi	r21, 0x00	; 0
    16c0:	60 e0       	ldi	r22, 0x00	; 0
    16c2:	70 e0       	ldi	r23, 0x00	; 0
    16c4:	83 e3       	ldi	r24, 0x33	; 51
    16c6:	92 e0       	ldi	r25, 0x02	; 2
    16c8:	82 db       	rcall	.-2300   	; 0xdce <_ZN11Framebuffer10drawStringEiiPKc>
    16ca:	3b c0       	rjmp	.+118    	; 0x1742 <_Z12menu3Displayh+0xbc>
	}
	else if(display == 1){
    16cc:	c1 30       	cpi	r28, 0x01	; 1
    16ce:	e1 f4       	brne	.+56     	; 0x1708 <_Z12menu3Displayh+0x82>
		myDisplay.drawString(column(1),row(1)," Max");
    16d0:	21 ef       	ldi	r18, 0xF1	; 241
    16d2:	31 e0       	ldi	r19, 0x01	; 1
    16d4:	40 e0       	ldi	r20, 0x00	; 0
    16d6:	50 e0       	ldi	r21, 0x00	; 0
    16d8:	60 e0       	ldi	r22, 0x00	; 0
    16da:	70 e0       	ldi	r23, 0x00	; 0
    16dc:	83 e3       	ldi	r24, 0x33	; 51
    16de:	92 e0       	ldi	r25, 0x02	; 2
    16e0:	76 db       	rcall	.-2324   	; 0xdce <_ZN11Framebuffer10drawStringEiiPKc>
		myDisplay.drawString(column(1),row(2),">Inc");
    16e2:	26 ef       	ldi	r18, 0xF6	; 246
    16e4:	31 e0       	ldi	r19, 0x01	; 1
    16e6:	40 e1       	ldi	r20, 0x10	; 16
    16e8:	50 e0       	ldi	r21, 0x00	; 0
    16ea:	60 e0       	ldi	r22, 0x00	; 0
    16ec:	70 e0       	ldi	r23, 0x00	; 0
    16ee:	83 e3       	ldi	r24, 0x33	; 51
    16f0:	92 e0       	ldi	r25, 0x02	; 2
    16f2:	6d db       	rcall	.-2342   	; 0xdce <_ZN11Framebuffer10drawStringEiiPKc>
		myDisplay.drawString(column(1),row(3)," Min");
    16f4:	2c ee       	ldi	r18, 0xEC	; 236
    16f6:	31 e0       	ldi	r19, 0x01	; 1
    16f8:	40 e2       	ldi	r20, 0x20	; 32
    16fa:	50 e0       	ldi	r21, 0x00	; 0
    16fc:	60 e0       	ldi	r22, 0x00	; 0
    16fe:	70 e0       	ldi	r23, 0x00	; 0
    1700:	83 e3       	ldi	r24, 0x33	; 51
    1702:	92 e0       	ldi	r25, 0x02	; 2
    1704:	64 db       	rcall	.-2360   	; 0xdce <_ZN11Framebuffer10drawStringEiiPKc>
    1706:	1d c0       	rjmp	.+58     	; 0x1742 <_Z12menu3Displayh+0xbc>
	}
	else if(display == 2){
    1708:	c2 30       	cpi	r28, 0x02	; 2
    170a:	d9 f4       	brne	.+54     	; 0x1742 <_Z12menu3Displayh+0xbc>
		myDisplay.drawString(column(1),row(1)," Max");
    170c:	21 ef       	ldi	r18, 0xF1	; 241
    170e:	31 e0       	ldi	r19, 0x01	; 1
    1710:	40 e0       	ldi	r20, 0x00	; 0
    1712:	50 e0       	ldi	r21, 0x00	; 0
    1714:	60 e0       	ldi	r22, 0x00	; 0
    1716:	70 e0       	ldi	r23, 0x00	; 0
    1718:	83 e3       	ldi	r24, 0x33	; 51
    171a:	92 e0       	ldi	r25, 0x02	; 2
		myDisplay.drawString(column(1),row(2)," Inc");
    171c:	58 db       	rcall	.-2384   	; 0xdce <_ZN11Framebuffer10drawStringEiiPKc>
    171e:	27 ee       	ldi	r18, 0xE7	; 231
    1720:	31 e0       	ldi	r19, 0x01	; 1
    1722:	40 e1       	ldi	r20, 0x10	; 16
    1724:	50 e0       	ldi	r21, 0x00	; 0
    1726:	60 e0       	ldi	r22, 0x00	; 0
    1728:	70 e0       	ldi	r23, 0x00	; 0
    172a:	83 e3       	ldi	r24, 0x33	; 51
		myDisplay.drawString(column(1),row(3),">Min");
    172c:	92 e0       	ldi	r25, 0x02	; 2
    172e:	4f db       	rcall	.-2402   	; 0xdce <_ZN11Framebuffer10drawStringEiiPKc>
    1730:	2b ef       	ldi	r18, 0xFB	; 251
    1732:	31 e0       	ldi	r19, 0x01	; 1
    1734:	40 e2       	ldi	r20, 0x20	; 32
    1736:	50 e0       	ldi	r21, 0x00	; 0
    1738:	60 e0       	ldi	r22, 0x00	; 0
    173a:	70 e0       	ldi	r23, 0x00	; 0
    173c:	83 e3       	ldi	r24, 0x33	; 51
	}
	myDisplay.show();
    173e:	92 e0       	ldi	r25, 0x02	; 2
    1740:	46 db       	rcall	.-2420   	; 0xdce <_ZN11Framebuffer10drawStringEiiPKc>
    1742:	83 e3       	ldi	r24, 0x33	; 51
    1744:	92 e0       	ldi	r25, 0x02	; 2
}
    1746:	ab da       	rcall	.-2730   	; 0xc9e <_ZN11Framebuffer4showEv>
    1748:	cf 91       	pop	r28
    174a:	08 95       	ret

0000174c <_Z12menu3Runningv>:
void menu3Running(){
	myDisplay.clear();
    174c:	83 e3       	ldi	r24, 0x33	; 51
    174e:	92 e0       	ldi	r25, 0x02	; 2
    1750:	95 da       	rcall	.-2774   	; 0xc7c <_ZN11Framebuffer5clearEv>
	myDisplay.drawString(column(1),row(1),"Current:");
    1752:	20 e0       	ldi	r18, 0x00	; 0
    1754:	32 e0       	ldi	r19, 0x02	; 2
    1756:	40 e0       	ldi	r20, 0x00	; 0
    1758:	50 e0       	ldi	r21, 0x00	; 0
    175a:	60 e0       	ldi	r22, 0x00	; 0
    175c:	70 e0       	ldi	r23, 0x00	; 0
    175e:	83 e3       	ldi	r24, 0x33	; 51
    1760:	92 e0       	ldi	r25, 0x02	; 2
    1762:	35 db       	rcall	.-2454   	; 0xdce <_ZN11Framebuffer10drawStringEiiPKc>
	myDisplay.drawNumber(column(1),row(2),stepCurrentPosition);
    1764:	20 91 42 06 	lds	r18, 0x0642	; 0x800642 <stepCurrentPosition>
    1768:	30 91 43 06 	lds	r19, 0x0643	; 0x800643 <stepCurrentPosition+0x1>
    176c:	40 e1       	ldi	r20, 0x10	; 16
    176e:	50 e0       	ldi	r21, 0x00	; 0
    1770:	60 e0       	ldi	r22, 0x00	; 0
    1772:	70 e0       	ldi	r23, 0x00	; 0
    1774:	83 e3       	ldi	r24, 0x33	; 51
    1776:	92 e0       	ldi	r25, 0x02	; 2
    1778:	60 db       	rcall	.-2368   	; 0xe3a <_ZN11Framebuffer10drawNumberEiii>
	myDisplay.drawString(column(1),row(3),"Goal:");
    177a:	22 eb       	ldi	r18, 0xB2	; 178
    177c:	31 e0       	ldi	r19, 0x01	; 1
    177e:	40 e2       	ldi	r20, 0x20	; 32
    1780:	50 e0       	ldi	r21, 0x00	; 0
    1782:	60 e0       	ldi	r22, 0x00	; 0
    1784:	70 e0       	ldi	r23, 0x00	; 0
    1786:	83 e3       	ldi	r24, 0x33	; 51
    1788:	92 e0       	ldi	r25, 0x02	; 2
    178a:	21 db       	rcall	.-2494   	; 0xdce <_ZN11Framebuffer10drawStringEiiPKc>
	myDisplay.drawNumber(column(1),row(4),stepGoalPosition);
    178c:	20 91 40 06 	lds	r18, 0x0640	; 0x800640 <stepGoalPosition>
    1790:	30 91 41 06 	lds	r19, 0x0641	; 0x800641 <stepGoalPosition+0x1>
    1794:	40 e3       	ldi	r20, 0x30	; 48
    1796:	50 e0       	ldi	r21, 0x00	; 0
    1798:	60 e0       	ldi	r22, 0x00	; 0
    179a:	70 e0       	ldi	r23, 0x00	; 0
    179c:	83 e3       	ldi	r24, 0x33	; 51
    179e:	92 e0       	ldi	r25, 0x02	; 2
	myDisplay.show();
    17a0:	4c db       	rcall	.-2408   	; 0xe3a <_ZN11Framebuffer10drawNumberEiii>
    17a2:	83 e3       	ldi	r24, 0x33	; 51
    17a4:	92 e0       	ldi	r25, 0x02	; 2
    17a6:	7b ca       	rjmp	.-2826   	; 0xc9e <_ZN11Framebuffer4showEv>
    17a8:	08 95       	ret

000017aa <_Z9initMotorv>:
void motorForward(){
	MOTOR_PORT = (MOTOR_PORT & ~MOTOR_PINS) | MOTOR_FORWARD;
}

void motorReverse(){
	MOTOR_PORT = (MOTOR_PORT & ~MOTOR_PINS) | MOTOR_REVERSE;
    17aa:	84 b1       	in	r24, 0x04	; 4
    17ac:	81 61       	ori	r24, 0x11	; 17
    17ae:	84 b9       	out	0x04, r24	; 4
    17b0:	81 b1       	in	r24, 0x01	; 1
    17b2:	80 6c       	ori	r24, 0xC0	; 192
    17b4:	81 b9       	out	0x01, r24	; 1
    17b6:	20 9a       	sbi	0x04, 0	; 4
    17b8:	e0 eb       	ldi	r30, 0xB0	; 176
    17ba:	f0 e0       	ldi	r31, 0x00	; 0
    17bc:	80 81       	ld	r24, Z
    17be:	83 60       	ori	r24, 0x03	; 3
    17c0:	80 83       	st	Z, r24
    17c2:	80 81       	ld	r24, Z
    17c4:	80 68       	ori	r24, 0x80	; 128
    17c6:	80 83       	st	Z, r24
    17c8:	e1 eb       	ldi	r30, 0xB1	; 177
    17ca:	f0 e0       	ldi	r31, 0x00	; 0
    17cc:	80 81       	ld	r24, Z
    17ce:	82 60       	ori	r24, 0x02	; 2
    17d0:	80 83       	st	Z, r24
    17d2:	80 e8       	ldi	r24, 0x80	; 128
    17d4:	80 93 b3 00 	sts	0x00B3, r24	; 0x8000b3 <__TEXT_REGION_LENGTH__+0x7e00b3>
    17d8:	28 98       	cbi	0x05, 0	; 5
    17da:	08 95       	ret

000017dc <_Z10motorSpeedc>:
    17dc:	10 92 b2 00 	sts	0x00B2, r1	; 0x8000b2 <__TEXT_REGION_LENGTH__+0x7e00b2>
    17e0:	80 93 b3 00 	sts	0x00B3, r24	; 0x8000b3 <__TEXT_REGION_LENGTH__+0x7e00b3>
    17e4:	08 95       	ret

000017e6 <_Z12motorForwardv>:
    17e6:	82 b1       	in	r24, 0x02	; 2
    17e8:	8f 73       	andi	r24, 0x3F	; 63
    17ea:	80 64       	ori	r24, 0x40	; 64
    17ec:	82 b9       	out	0x02, r24	; 2
    17ee:	08 95       	ret

000017f0 <_Z10motorBrakev>:
}

void motorBrake(){
	MOTOR_PORT = (MOTOR_PORT & ~MOTOR_PINS) | MOTOR_BRAKE;
    17f0:	82 b1       	in	r24, 0x02	; 2
    17f2:	8f 73       	andi	r24, 0x3F	; 63
    17f4:	82 b9       	out	0x02, r24	; 2
    17f6:	08 95       	ret

000017f8 <_ZN7SSD130611sendCommandEh>:

void SSD1306::invert(uint8_t inverted) {
    if (inverted) {
        sendCommand(SSD1306_INVERTDISPLAY);
    } else {
        sendCommand(SSD1306_NORMALDISPLAY);
    17f8:	1f 93       	push	r17
    17fa:	cf 93       	push	r28
    17fc:	df 93       	push	r29
    17fe:	ec 01       	movw	r28, r24
    1800:	16 2f       	mov	r17, r22
    1802:	7d db       	rcall	.-2310   	; 0xefe <_ZN3I2C5startEv>
    1804:	60 e0       	ldi	r22, 0x00	; 0
    1806:	ce 01       	movw	r24, r28
    1808:	a8 db       	rcall	.-2224   	; 0xf5a <_ZN3I2C5writeEh>
    180a:	61 2f       	mov	r22, r17
    180c:	ce 01       	movw	r24, r28
    180e:	a5 db       	rcall	.-2230   	; 0xf5a <_ZN3I2C5writeEh>
    1810:	ce 01       	movw	r24, r28
    1812:	b8 db       	rcall	.-2192   	; 0xf84 <_ZN3I2C4stopEv>
    1814:	df 91       	pop	r29
    1816:	cf 91       	pop	r28
    1818:	1f 91       	pop	r17
    181a:	08 95       	ret

0000181c <_ZN7SSD1306C1Ev>:
    181c:	cf 93       	push	r28
    181e:	df 93       	push	r29
    1820:	ec 01       	movw	r28, r24
    1822:	64 db       	rcall	.-2360   	; 0xeec <_ZN3I2CC1Ev>
    1824:	68 e7       	ldi	r22, 0x78	; 120
    1826:	ce 01       	movw	r24, r28
    1828:	62 db       	rcall	.-2364   	; 0xeee <_ZN3I2C4initEh>
    182a:	6e ea       	ldi	r22, 0xAE	; 174
    182c:	ce 01       	movw	r24, r28
    182e:	e4 df       	rcall	.-56     	; 0x17f8 <_ZN7SSD130611sendCommandEh>
    1830:	65 ed       	ldi	r22, 0xD5	; 213
    1832:	ce 01       	movw	r24, r28
    1834:	e1 df       	rcall	.-62     	; 0x17f8 <_ZN7SSD130611sendCommandEh>
    1836:	60 e8       	ldi	r22, 0x80	; 128
    1838:	ce 01       	movw	r24, r28
    183a:	de df       	rcall	.-68     	; 0x17f8 <_ZN7SSD130611sendCommandEh>
    183c:	68 ea       	ldi	r22, 0xA8	; 168
    183e:	ce 01       	movw	r24, r28
    1840:	db df       	rcall	.-74     	; 0x17f8 <_ZN7SSD130611sendCommandEh>
    1842:	6f e3       	ldi	r22, 0x3F	; 63
    1844:	ce 01       	movw	r24, r28
    1846:	d8 df       	rcall	.-80     	; 0x17f8 <_ZN7SSD130611sendCommandEh>
    1848:	63 ed       	ldi	r22, 0xD3	; 211
    184a:	ce 01       	movw	r24, r28
    184c:	d5 df       	rcall	.-86     	; 0x17f8 <_ZN7SSD130611sendCommandEh>
    184e:	60 e0       	ldi	r22, 0x00	; 0
    1850:	ce 01       	movw	r24, r28
    1852:	d2 df       	rcall	.-92     	; 0x17f8 <_ZN7SSD130611sendCommandEh>
    1854:	60 e4       	ldi	r22, 0x40	; 64
    1856:	ce 01       	movw	r24, r28
    1858:	cf df       	rcall	.-98     	; 0x17f8 <_ZN7SSD130611sendCommandEh>
    185a:	6d e8       	ldi	r22, 0x8D	; 141
    185c:	ce 01       	movw	r24, r28
    185e:	cc df       	rcall	.-104    	; 0x17f8 <_ZN7SSD130611sendCommandEh>
    1860:	64 e1       	ldi	r22, 0x14	; 20
    1862:	ce 01       	movw	r24, r28
    1864:	c9 df       	rcall	.-110    	; 0x17f8 <_ZN7SSD130611sendCommandEh>
    1866:	60 e2       	ldi	r22, 0x20	; 32
    1868:	ce 01       	movw	r24, r28
    186a:	c6 df       	rcall	.-116    	; 0x17f8 <_ZN7SSD130611sendCommandEh>
    186c:	60 e0       	ldi	r22, 0x00	; 0
    186e:	ce 01       	movw	r24, r28
    1870:	c3 df       	rcall	.-122    	; 0x17f8 <_ZN7SSD130611sendCommandEh>
    1872:	61 ea       	ldi	r22, 0xA1	; 161
    1874:	ce 01       	movw	r24, r28
    1876:	c0 df       	rcall	.-128    	; 0x17f8 <_ZN7SSD130611sendCommandEh>
    1878:	68 ec       	ldi	r22, 0xC8	; 200
    187a:	ce 01       	movw	r24, r28
    187c:	bd df       	rcall	.-134    	; 0x17f8 <_ZN7SSD130611sendCommandEh>
    187e:	6a ed       	ldi	r22, 0xDA	; 218
    1880:	ce 01       	movw	r24, r28
    1882:	ba df       	rcall	.-140    	; 0x17f8 <_ZN7SSD130611sendCommandEh>
    1884:	62 e1       	ldi	r22, 0x12	; 18
    1886:	ce 01       	movw	r24, r28
    1888:	b7 df       	rcall	.-146    	; 0x17f8 <_ZN7SSD130611sendCommandEh>
    188a:	61 e8       	ldi	r22, 0x81	; 129
    188c:	ce 01       	movw	r24, r28
    188e:	b4 df       	rcall	.-152    	; 0x17f8 <_ZN7SSD130611sendCommandEh>
    1890:	6f ec       	ldi	r22, 0xCF	; 207
    1892:	ce 01       	movw	r24, r28
    1894:	b1 df       	rcall	.-158    	; 0x17f8 <_ZN7SSD130611sendCommandEh>
    1896:	69 ed       	ldi	r22, 0xD9	; 217
    1898:	ce 01       	movw	r24, r28
    189a:	ae df       	rcall	.-164    	; 0x17f8 <_ZN7SSD130611sendCommandEh>
    189c:	61 ef       	ldi	r22, 0xF1	; 241
    189e:	ce 01       	movw	r24, r28
    18a0:	ab df       	rcall	.-170    	; 0x17f8 <_ZN7SSD130611sendCommandEh>
    18a2:	6b ed       	ldi	r22, 0xDB	; 219
    18a4:	ce 01       	movw	r24, r28
    18a6:	a8 df       	rcall	.-176    	; 0x17f8 <_ZN7SSD130611sendCommandEh>
    18a8:	60 e4       	ldi	r22, 0x40	; 64
    18aa:	ce 01       	movw	r24, r28
    18ac:	a5 df       	rcall	.-182    	; 0x17f8 <_ZN7SSD130611sendCommandEh>
    18ae:	64 ea       	ldi	r22, 0xA4	; 164
    18b0:	ce 01       	movw	r24, r28
    18b2:	a2 df       	rcall	.-188    	; 0x17f8 <_ZN7SSD130611sendCommandEh>
    18b4:	66 ea       	ldi	r22, 0xA6	; 166
    18b6:	ce 01       	movw	r24, r28
    18b8:	9f df       	rcall	.-194    	; 0x17f8 <_ZN7SSD130611sendCommandEh>
    18ba:	6f ea       	ldi	r22, 0xAF	; 175
    18bc:	ce 01       	movw	r24, r28
    18be:	9c df       	rcall	.-200    	; 0x17f8 <_ZN7SSD130611sendCommandEh>
    18c0:	df 91       	pop	r29
    18c2:	cf 91       	pop	r28
    18c4:	08 95       	ret

000018c6 <_ZN7SSD130615sendFramebufferEPh>:
    }
}

void SSD1306::sendFramebuffer(uint8_t *buffer) {
    18c6:	cf 92       	push	r12
    18c8:	df 92       	push	r13
    18ca:	ef 92       	push	r14
    18cc:	ff 92       	push	r15
    18ce:	0f 93       	push	r16
    18d0:	1f 93       	push	r17
    18d2:	cf 93       	push	r28
    18d4:	df 93       	push	r29
    18d6:	08 2f       	mov	r16, r24
    18d8:	19 2f       	mov	r17, r25
    18da:	7b 01       	movw	r14, r22
    sendCommand(SSD1306_COLUMNADDR);
    18dc:	61 e2       	ldi	r22, 0x21	; 33
    18de:	8c df       	rcall	.-232    	; 0x17f8 <_ZN7SSD130611sendCommandEh>
    sendCommand(0x00);
    18e0:	60 e0       	ldi	r22, 0x00	; 0
    18e2:	80 2f       	mov	r24, r16
    18e4:	91 2f       	mov	r25, r17
    18e6:	88 df       	rcall	.-240    	; 0x17f8 <_ZN7SSD130611sendCommandEh>
    sendCommand(0x7F);
    18e8:	6f e7       	ldi	r22, 0x7F	; 127
    18ea:	80 2f       	mov	r24, r16
    18ec:	91 2f       	mov	r25, r17

    sendCommand(SSD1306_PAGEADDR);
    18ee:	84 df       	rcall	.-248    	; 0x17f8 <_ZN7SSD130611sendCommandEh>
    18f0:	62 e2       	ldi	r22, 0x22	; 34
    18f2:	80 2f       	mov	r24, r16
    sendCommand(0x00);
    18f4:	91 2f       	mov	r25, r17
    18f6:	80 df       	rcall	.-256    	; 0x17f8 <_ZN7SSD130611sendCommandEh>
    18f8:	60 e0       	ldi	r22, 0x00	; 0
    18fa:	80 2f       	mov	r24, r16
    sendCommand(0x07);
    18fc:	91 2f       	mov	r25, r17
    18fe:	7c df       	rcall	.-264    	; 0x17f8 <_ZN7SSD130611sendCommandEh>
    1900:	67 e0       	ldi	r22, 0x07	; 7
    1902:	80 2f       	mov	r24, r16
    1904:	91 2f       	mov	r25, r17
    1906:	78 df       	rcall	.-272    	; 0x17f8 <_ZN7SSD130611sendCommandEh>

    // We have to send the buffer as 16 bytes packets
    // Our buffer is 1024 bytes long, 1024/16 = 64
    // We have to send 64 packets
    for (uint8_t packet = 0; packet < 64; packet++) { //*** change to 32? was 64
        i2c.start();
    1908:	e7 01       	movw	r28, r14
    190a:	8c ef       	ldi	r24, 0xFC	; 252
    190c:	f8 1a       	sub	r15, r24
        i2c.write(0x40);
    190e:	80 2f       	mov	r24, r16
    1910:	91 2f       	mov	r25, r17
    1912:	f5 da       	rcall	.-2582   	; 0xefe <_ZN3I2C5startEv>
    1914:	60 e4       	ldi	r22, 0x40	; 64
    1916:	80 2f       	mov	r24, r16
    1918:	91 2f       	mov	r25, r17
    191a:	1f db       	rcall	.-2498   	; 0xf5a <_ZN3I2C5writeEh>
    191c:	6e 01       	movw	r12, r28
        for (uint8_t packet_byte = 0; packet_byte < 16; ++packet_byte) {
            i2c.write(buffer[packet*16+packet_byte]);
    191e:	80 e1       	ldi	r24, 0x10	; 16
    1920:	c8 0e       	add	r12, r24
    1922:	d1 1c       	adc	r13, r1
    1924:	69 91       	ld	r22, Y+
    // Our buffer is 1024 bytes long, 1024/16 = 64
    // We have to send 64 packets
    for (uint8_t packet = 0; packet < 64; packet++) { //*** change to 32? was 64
        i2c.start();
        i2c.write(0x40);
        for (uint8_t packet_byte = 0; packet_byte < 16; ++packet_byte) {
    1926:	80 2f       	mov	r24, r16
    1928:	91 2f       	mov	r25, r17
    192a:	17 db       	rcall	.-2514   	; 0xf5a <_ZN3I2C5writeEh>
            i2c.write(buffer[packet*16+packet_byte]);
        }
        i2c.stop();
    192c:	cc 15       	cp	r28, r12
    192e:	dd 05       	cpc	r29, r13
    1930:	c9 f7       	brne	.-14     	; 0x1924 <_ZN7SSD130615sendFramebufferEPh+0x5e>
    1932:	80 2f       	mov	r24, r16
    1934:	91 2f       	mov	r25, r17
    sendCommand(0x07);

    // We have to send the buffer as 16 bytes packets
    // Our buffer is 1024 bytes long, 1024/16 = 64
    // We have to send 64 packets
    for (uint8_t packet = 0; packet < 64; packet++) { //*** change to 32? was 64
    1936:	26 db       	rcall	.-2484   	; 0xf84 <_ZN3I2C4stopEv>
    1938:	e6 01       	movw	r28, r12
    193a:	ec 14       	cp	r14, r12
        for (uint8_t packet_byte = 0; packet_byte < 16; ++packet_byte) {
            i2c.write(buffer[packet*16+packet_byte]);
        }
        i2c.stop();
    }
}
    193c:	fd 04       	cpc	r15, r13
    193e:	39 f7       	brne	.-50     	; 0x190e <_ZN7SSD130615sendFramebufferEPh+0x48>
    1940:	df 91       	pop	r29
    1942:	cf 91       	pop	r28
    1944:	1f 91       	pop	r17
    1946:	0f 91       	pop	r16
    1948:	ff 90       	pop	r15
    194a:	ef 90       	pop	r14
    194c:	df 90       	pop	r13
    194e:	cf 90       	pop	r12
    1950:	08 95       	ret

00001952 <_Z11initStepperv>:
	else if(((difference < 0) && (difference >= -100))){
		//difference = ((difference >= 0) ? difference : -difference) -100;
		rotateStepper(abs(difference), 0);
	}
	else if(difference >= 100){
		rotateStepper(abs(shortPath), 0);
    1952:	81 b1       	in	r24, 0x01	; 1
    1954:	8f 63       	ori	r24, 0x3F	; 63
    1956:	81 b9       	out	0x01, r24	; 1
    1958:	84 b5       	in	r24, 0x24	; 36
    195a:	82 60       	ori	r24, 0x02	; 2
    195c:	84 bd       	out	0x24, r24	; 36
    195e:	84 e8       	ldi	r24, 0x84	; 132
    1960:	87 bd       	out	0x27, r24	; 39
    1962:	16 bc       	out	0x26, r1	; 38
    1964:	08 95       	ret

00001966 <_Z12startStepperv>:
    1966:	ee e6       	ldi	r30, 0x6E	; 110
    1968:	f0 e0       	ldi	r31, 0x00	; 0
    196a:	80 81       	ld	r24, Z
    196c:	82 60       	ori	r24, 0x02	; 2
    196e:	80 83       	st	Z, r24
    1970:	a9 9a       	sbi	0x15, 1	; 21
    1972:	85 b5       	in	r24, 0x25	; 37
    1974:	85 60       	ori	r24, 0x05	; 5
    1976:	85 bd       	out	0x25, r24	; 37
    1978:	08 95       	ret

0000197a <_Z13rotateStepperii>:
    197a:	bf 92       	push	r11
    197c:	cf 92       	push	r12
    197e:	df 92       	push	r13
    1980:	ef 92       	push	r14
    1982:	ff 92       	push	r15
    1984:	0f 93       	push	r16
    1986:	1f 93       	push	r17
    1988:	cf 93       	push	r28
    198a:	df 93       	push	r29
    198c:	18 16       	cp	r1, r24
    198e:	19 06       	cpc	r1, r25
    1990:	0c f0       	brlt	.+2      	; 0x1994 <_Z13rotateStepperii+0x1a>
    1992:	65 c0       	rjmp	.+202    	; 0x1a5e <_Z13rotateStepperii+0xe4>
    1994:	8b 01       	movw	r16, r22
    1996:	ec 01       	movw	r28, r24
    1998:	c1 2c       	mov	r12, r1
    199a:	d1 2c       	mov	r13, r1
    199c:	0f 2e       	mov	r0, r31
    199e:	f2 e1       	ldi	r31, 0x12	; 18
    19a0:	bf 2e       	mov	r11, r31
    19a2:	f0 2d       	mov	r31, r0
    19a4:	0f 2e       	mov	r0, r31
    19a6:	f7 ec       	ldi	r31, 0xC7	; 199
    19a8:	ef 2e       	mov	r14, r31
    19aa:	f1 2c       	mov	r15, r1
    19ac:	f0 2d       	mov	r31, r0
    19ae:	01 15       	cp	r16, r1
    19b0:	11 05       	cpc	r17, r1
    19b2:	d9 f0       	breq	.+54     	; 0x19ea <_Z13rotateStepperii+0x70>
    19b4:	80 91 42 06 	lds	r24, 0x0642	; 0x800642 <stepCurrentPosition>
    19b8:	90 91 43 06 	lds	r25, 0x0643	; 0x800643 <stepCurrentPosition+0x1>
    19bc:	01 96       	adiw	r24, 0x01	; 1
    19be:	90 93 43 06 	sts	0x0643, r25	; 0x800643 <stepCurrentPosition+0x1>
    19c2:	80 93 42 06 	sts	0x0642, r24	; 0x800642 <stepCurrentPosition>
    19c6:	80 91 3f 06 	lds	r24, 0x063F	; 0x80063f <stepAPosition>
    19ca:	8f 5f       	subi	r24, 0xFF	; 255
    19cc:	83 70       	andi	r24, 0x03	; 3
    19ce:	80 93 3f 06 	sts	0x063F, r24	; 0x80063f <stepAPosition>
    19d2:	80 91 42 06 	lds	r24, 0x0642	; 0x800642 <stepCurrentPosition>
    19d6:	90 91 43 06 	lds	r25, 0x0643	; 0x800643 <stepCurrentPosition+0x1>
    19da:	88 3c       	cpi	r24, 0xC8	; 200
    19dc:	91 05       	cpc	r25, r1
    19de:	fc f0       	brlt	.+62     	; 0x1a1e <_Z13rotateStepperii+0xa4>
    19e0:	10 92 43 06 	sts	0x0643, r1	; 0x800643 <stepCurrentPosition+0x1>
    19e4:	10 92 42 06 	sts	0x0642, r1	; 0x800642 <stepCurrentPosition>
    19e8:	1a c0       	rjmp	.+52     	; 0x1a1e <_Z13rotateStepperii+0xa4>
    19ea:	80 91 42 06 	lds	r24, 0x0642	; 0x800642 <stepCurrentPosition>
    19ee:	90 91 43 06 	lds	r25, 0x0643	; 0x800643 <stepCurrentPosition+0x1>
    19f2:	89 2b       	or	r24, r25
    19f4:	29 f4       	brne	.+10     	; 0x1a00 <_Z13rotateStepperii+0x86>
    19f6:	f0 92 43 06 	sts	0x0643, r15	; 0x800643 <stepCurrentPosition+0x1>
    19fa:	e0 92 42 06 	sts	0x0642, r14	; 0x800642 <stepCurrentPosition>
    19fe:	09 c0       	rjmp	.+18     	; 0x1a12 <_Z13rotateStepperii+0x98>
    1a00:	80 91 42 06 	lds	r24, 0x0642	; 0x800642 <stepCurrentPosition>
    1a04:	90 91 43 06 	lds	r25, 0x0643	; 0x800643 <stepCurrentPosition+0x1>
    1a08:	01 97       	sbiw	r24, 0x01	; 1
    1a0a:	90 93 43 06 	sts	0x0643, r25	; 0x800643 <stepCurrentPosition+0x1>
    1a0e:	80 93 42 06 	sts	0x0642, r24	; 0x800642 <stepCurrentPosition>
    1a12:	80 91 3f 06 	lds	r24, 0x063F	; 0x80063f <stepAPosition>
    1a16:	81 50       	subi	r24, 0x01	; 1
    1a18:	83 70       	andi	r24, 0x03	; 3
    1a1a:	80 93 3f 06 	sts	0x063F, r24	; 0x80063f <stepAPosition>
    1a1e:	82 b1       	in	r24, 0x02	; 2
    1a20:	e0 91 3f 06 	lds	r30, 0x063F	; 0x80063f <stepAPosition>
    1a24:	80 7c       	andi	r24, 0xC0	; 192
    1a26:	f0 e0       	ldi	r31, 0x00	; 0
    1a28:	e3 5e       	subi	r30, 0xE3	; 227
    1a2a:	fd 4f       	sbci	r31, 0xFD	; 253
    1a2c:	90 81       	ld	r25, Z
    1a2e:	89 2b       	or	r24, r25
    1a30:	82 b9       	out	0x02, r24	; 2
    1a32:	8a e0       	ldi	r24, 0x0A	; 10
    1a34:	c8 16       	cp	r12, r24
    1a36:	d1 04       	cpc	r13, r1
    1a38:	14 f4       	brge	.+4      	; 0x1a3e <_Z13rotateStepperii+0xc4>
    1a3a:	ba 94       	dec	r11
    1a3c:	06 c0       	rjmp	.+12     	; 0x1a4a <_Z13rotateStepperii+0xd0>
    1a3e:	ce 01       	movw	r24, r28
    1a40:	8c 19       	sub	r24, r12
    1a42:	9d 09       	sbc	r25, r13
    1a44:	44 97       	sbiw	r24, 0x14	; 20
    1a46:	0c f4       	brge	.+2      	; 0x1a4a <_Z13rotateStepperii+0xd0>
    1a48:	b3 94       	inc	r11
    1a4a:	8b 2d       	mov	r24, r11
    1a4c:	90 e0       	ldi	r25, 0x00	; 0
    1a4e:	cd d2       	rcall	.+1434   	; 0x1fea <_Z6mTimeri>
    1a50:	8f ef       	ldi	r24, 0xFF	; 255
    1a52:	c8 1a       	sub	r12, r24
    1a54:	d8 0a       	sbc	r13, r24
    1a56:	cc 15       	cp	r28, r12
    1a58:	dd 05       	cpc	r29, r13
    1a5a:	09 f0       	breq	.+2      	; 0x1a5e <_Z13rotateStepperii+0xe4>
    1a5c:	a8 cf       	rjmp	.-176    	; 0x19ae <_Z13rotateStepperii+0x34>
    1a5e:	df 91       	pop	r29
    1a60:	cf 91       	pop	r28
    1a62:	1f 91       	pop	r17
    1a64:	0f 91       	pop	r16
    1a66:	ff 90       	pop	r15
    1a68:	ef 90       	pop	r14
    1a6a:	df 90       	pop	r13
    1a6c:	cf 90       	pop	r12
    1a6e:	bf 90       	pop	r11
    1a70:	08 95       	ret

00001a72 <_Z11homeStepperv>:
    1a72:	61 e0       	ldi	r22, 0x01	; 1
    1a74:	70 e0       	ldi	r23, 0x00	; 0
    1a76:	89 e1       	ldi	r24, 0x19	; 25
    1a78:	90 e0       	ldi	r25, 0x00	; 0
    1a7a:	7f df       	rcall	.-258    	; 0x197a <_Z13rotateStepperii>
    1a7c:	66 9b       	sbis	0x0c, 6	; 12
    1a7e:	07 c0       	rjmp	.+14     	; 0x1a8e <_Z11homeStepperv+0x1c>
    1a80:	61 e0       	ldi	r22, 0x01	; 1
    1a82:	70 e0       	ldi	r23, 0x00	; 0
    1a84:	81 e0       	ldi	r24, 0x01	; 1
    1a86:	90 e0       	ldi	r25, 0x00	; 0
    1a88:	78 df       	rcall	.-272    	; 0x197a <_Z13rotateStepperii>
    1a8a:	66 99       	sbic	0x0c, 6	; 12
    1a8c:	f9 cf       	rjmp	.-14     	; 0x1a80 <_Z11homeStepperv+0xe>
    1a8e:	10 92 43 06 	sts	0x0643, r1	; 0x800643 <stepCurrentPosition+0x1>
    1a92:	10 92 42 06 	sts	0x0642, r1	; 0x800642 <stepCurrentPosition>
    1a96:	08 95       	ret

00001a98 <_Z18stepperCalibrationv>:
			mTimer(20);
			while((PINE & JS_DOWN_PIN) == 0){};
			mTimer(20);
			stepGoalPosition -=50;
			if(stepGoalPosition < 0){
				stepGoalPosition = 150;
    1a98:	0f 2e       	mov	r0, r31
    1a9a:	f6 e9       	ldi	r31, 0x96	; 150
    1a9c:	cf 2e       	mov	r12, r31
    1a9e:	d1 2c       	mov	r13, r1
    1aa0:	f0 2d       	mov	r31, r0
		}
		menu3Display(menuSelection);
	}
	valueSelection:
	//Change from ADC1 to ADC 2 *** must change back
	ADMUX = (ADMUX & ~_BV(MUX0)) | _BV(MUX1);
    1aa2:	0f 2e       	mov	r0, r31
    1aa4:	fc e7       	ldi	r31, 0x7C	; 124
    1aa6:	ef 2e       	mov	r14, r31
    1aa8:	f1 2c       	mov	r15, r1
    1aaa:	f0 2d       	mov	r31, r0
	//Left shifted
	ADMUX |= _BV(ADLAR);
	//Disable ADC interrupt
	ADCSRA &= ~_BV(ADIE);
    1aac:	ca e7       	ldi	r28, 0x7A	; 122
    1aae:	d0 e0       	ldi	r29, 0x00	; 0
		//Start ADC conversion
		ADCSRA |= _BV(ADSC);
		while(ADCSRA & _BV(ADSC)){}; //wait for conversion to finish
		
		if(adcEightCount < 8){
			adcEightAverage = adcEightAverage + ADCH - (adcEightAverage >> 3); //MA[n]* = MA[n-1]* + x[n] - MA[n-1]*/N
    1ab0:	0f 2e       	mov	r0, r31
    1ab2:	f9 e7       	ldi	r31, 0x79	; 121
    1ab4:	af 2e       	mov	r10, r31
    1ab6:	b1 2c       	mov	r11, r1
    1ab8:	f0 2d       	mov	r31, r0
				valueLabel = "IncrValue";
				calibSelectedValue = &stepperAccelRate;
			}
			else if(menuSelection == 2){
				valueLabel = "Min:";
				calibSelectedValue = &stepperMinDelay;
    1aba:	0f 2e       	mov	r0, r31
    1abc:	fd e0       	ldi	r31, 0x0D	; 13
    1abe:	2f 2e       	mov	r2, r31
    1ac0:	f1 e0       	ldi	r31, 0x01	; 1
    1ac2:	3f 2e       	mov	r3, r31
    1ac4:	f0 2d       	mov	r31, r0
			if(menuSelection == 0){
				valueLabel = "Max:";
				calibSelectedValue = &stepperMaxDelay;
			}
			else if(menuSelection == 1){
				valueLabel = "IncrValue";
    1ac6:	0f 2e       	mov	r0, r31
    1ac8:	fe e0       	ldi	r31, 0x0E	; 14
    1aca:	4f 2e       	mov	r4, r31
    1acc:	f2 e0       	ldi	r31, 0x02	; 2
    1ace:	5f 2e       	mov	r5, r31
    1ad0:	f0 2d       	mov	r31, r0
				calibSelectedValue = &stepperAccelRate;
    1ad2:	0f 2e       	mov	r0, r31
    1ad4:	fc e0       	ldi	r31, 0x0C	; 12
    1ad6:	6f 2e       	mov	r6, r31
    1ad8:	f1 e0       	ldi	r31, 0x01	; 1
    1ada:	7f 2e       	mov	r7, r31
    1adc:	f0 2d       	mov	r31, r0
		else if(JS_SELECT_PRESSED){
			mTimer(BUTTON_DEBOUNCE_DELAY);
			while(JS_SELECT_PRESSED){};
			mTimer(BUTTON_DEBOUNCE_DELAY);
			if(menuSelection == 0){
				valueLabel = "Max:";
    1ade:	0f 2e       	mov	r0, r31
    1ae0:	f9 e0       	ldi	r31, 0x09	; 9
    1ae2:	8f 2e       	mov	r8, r31
    1ae4:	f2 e0       	ldi	r31, 0x02	; 2
    1ae6:	9f 2e       	mov	r9, r31
    1ae8:	f0 2d       	mov	r31, r0
void stepperCalibration(){
	char menuSelection;
	//Stepper test loop for delay 
	stepperSettings:
	menuSelection = 0;
	menu3Display(menuSelection);
    1aea:	80 e0       	ldi	r24, 0x00	; 0
    1aec:	cc dd       	rcall	.-1128   	; 0x1686 <_Z12menu3Displayh>

void stepperCalibration(){
	char menuSelection;
	//Stepper test loop for delay 
	stepperSettings:
	menuSelection = 0;
    1aee:	10 e0       	ldi	r17, 0x00	; 0
	menu3Display(menuSelection);
	while(1){
		if(JS_UP_PRESSED){
    1af0:	1f 99       	sbic	0x03, 7	; 3
    1af2:	0d c0       	rjmp	.+26     	; 0x1b0e <_Z18stepperCalibrationv+0x76>
			mTimer(BUTTON_DEBOUNCE_DELAY);
    1af4:	84 e1       	ldi	r24, 0x14	; 20
    1af6:	90 e0       	ldi	r25, 0x00	; 0
    1af8:	78 d2       	rcall	.+1264   	; 0x1fea <_Z6mTimeri>
			while(JS_UP_PRESSED){};
    1afa:	1f 9b       	sbis	0x03, 7	; 3
			mTimer(BUTTON_DEBOUNCE_DELAY);	
    1afc:	fe cf       	rjmp	.-4      	; 0x1afa <_Z18stepperCalibrationv+0x62>
    1afe:	84 e1       	ldi	r24, 0x14	; 20
    1b00:	90 e0       	ldi	r25, 0x00	; 0
			if(menuSelection == 0){
    1b02:	73 d2       	rcall	.+1254   	; 0x1fea <_Z6mTimeri>
    1b04:	11 23       	and	r17, r17
    1b06:	09 f4       	brne	.+2      	; 0x1b0a <_Z18stepperCalibrationv+0x72>
				menuSelection = 0;
			}
			else{
				menuSelection--;
    1b08:	42 c0       	rjmp	.+132    	; 0x1b8e <_Z18stepperCalibrationv+0xf6>
    1b0a:	11 50       	subi	r17, 0x01	; 1
			}
			
			
		}
		else if(JS_DOWN_PRESSED){
    1b0c:	40 c0       	rjmp	.+128    	; 0x1b8e <_Z18stepperCalibrationv+0xf6>
			mTimer(BUTTON_DEBOUNCE_DELAY);
    1b0e:	65 99       	sbic	0x0c, 5	; 12
    1b10:	0d c0       	rjmp	.+26     	; 0x1b2c <_Z18stepperCalibrationv+0x94>
    1b12:	84 e1       	ldi	r24, 0x14	; 20
			while(JS_DOWN_PRESSED){};
    1b14:	90 e0       	ldi	r25, 0x00	; 0
			mTimer(BUTTON_DEBOUNCE_DELAY);
    1b16:	69 d2       	rcall	.+1234   	; 0x1fea <_Z6mTimeri>
    1b18:	65 9b       	sbis	0x0c, 5	; 12
    1b1a:	fe cf       	rjmp	.-4      	; 0x1b18 <_Z18stepperCalibrationv+0x80>
    1b1c:	84 e1       	ldi	r24, 0x14	; 20
			menuSelection++;
    1b1e:	90 e0       	ldi	r25, 0x00	; 0
    1b20:	64 d2       	rcall	.+1224   	; 0x1fea <_Z6mTimeri>
    1b22:	1f 5f       	subi	r17, 0xFF	; 255
    1b24:	13 30       	cpi	r17, 0x03	; 3
			if(menuSelection > 2){
				menuSelection = 2;
			}
		}
		else if(JS_SELECT_PRESSED){
    1b26:	98 f1       	brcs	.+102    	; 0x1b8e <_Z18stepperCalibrationv+0xf6>
    1b28:	12 e0       	ldi	r17, 0x02	; 2
			mTimer(BUTTON_DEBOUNCE_DELAY);
    1b2a:	31 c0       	rjmp	.+98     	; 0x1b8e <_Z18stepperCalibrationv+0xf6>
    1b2c:	1d 99       	sbic	0x03, 5	; 3
    1b2e:	2d c0       	rjmp	.+90     	; 0x1b8a <_Z18stepperCalibrationv+0xf2>
			while(JS_SELECT_PRESSED){};
    1b30:	84 e1       	ldi	r24, 0x14	; 20
    1b32:	90 e0       	ldi	r25, 0x00	; 0
			mTimer(BUTTON_DEBOUNCE_DELAY);
    1b34:	5a d2       	rcall	.+1204   	; 0x1fea <_Z6mTimeri>
    1b36:	1d 9b       	sbis	0x03, 5	; 3
    1b38:	fe cf       	rjmp	.-4      	; 0x1b36 <_Z18stepperCalibrationv+0x9e>
    1b3a:	84 e1       	ldi	r24, 0x14	; 20
			if(menuSelection == 0){
    1b3c:	90 e0       	ldi	r25, 0x00	; 0
    1b3e:	55 d2       	rcall	.+1194   	; 0x1fea <_Z6mTimeri>
				valueLabel = "Max:";
    1b40:	11 11       	cpse	r17, r1
    1b42:	0b c0       	rjmp	.+22     	; 0x1b5a <_Z18stepperCalibrationv+0xc2>
    1b44:	90 92 37 06 	sts	0x0637, r9	; 0x800637 <valueLabel+0x1>
				calibSelectedValue = &stepperMaxDelay;
    1b48:	80 92 36 06 	sts	0x0636, r8	; 0x800636 <valueLabel>
    1b4c:	8e e0       	ldi	r24, 0x0E	; 14
    1b4e:	91 e0       	ldi	r25, 0x01	; 1
    1b50:	90 93 3c 06 	sts	0x063C, r25	; 0x80063c <calibSelectedValue+0x1>
    1b54:	80 93 3b 06 	sts	0x063B, r24	; 0x80063b <calibSelectedValue>
			}
			else if(menuSelection == 1){
    1b58:	1d c0       	rjmp	.+58     	; 0x1b94 <_Z18stepperCalibrationv+0xfc>
				valueLabel = "IncrValue";
    1b5a:	11 30       	cpi	r17, 0x01	; 1
    1b5c:	49 f4       	brne	.+18     	; 0x1b70 <_Z18stepperCalibrationv+0xd8>
    1b5e:	50 92 37 06 	sts	0x0637, r5	; 0x800637 <valueLabel+0x1>
				calibSelectedValue = &stepperAccelRate;
    1b62:	40 92 36 06 	sts	0x0636, r4	; 0x800636 <valueLabel>
    1b66:	70 92 3c 06 	sts	0x063C, r7	; 0x80063c <calibSelectedValue+0x1>
    1b6a:	60 92 3b 06 	sts	0x063B, r6	; 0x80063b <calibSelectedValue>
			}
			else if(menuSelection == 2){
    1b6e:	12 c0       	rjmp	.+36     	; 0x1b94 <_Z18stepperCalibrationv+0xfc>
				valueLabel = "Min:";
    1b70:	12 30       	cpi	r17, 0x02	; 2
    1b72:	81 f4       	brne	.+32     	; 0x1b94 <_Z18stepperCalibrationv+0xfc>
    1b74:	68 e1       	ldi	r22, 0x18	; 24
    1b76:	72 e0       	ldi	r23, 0x02	; 2
    1b78:	70 93 37 06 	sts	0x0637, r23	; 0x800637 <valueLabel+0x1>
				calibSelectedValue = &stepperMinDelay;
    1b7c:	60 93 36 06 	sts	0x0636, r22	; 0x800636 <valueLabel>
    1b80:	30 92 3c 06 	sts	0x063C, r3	; 0x80063c <calibSelectedValue+0x1>
			}
			goto valueSelection;
		}
		else if(JS_RIGHT_PRESSED){
    1b84:	20 92 3b 06 	sts	0x063B, r2	; 0x80063b <calibSelectedValue>
			goto startStepperTest;
		}
		menu3Display(menuSelection);
    1b88:	05 c0       	rjmp	.+10     	; 0x1b94 <_Z18stepperCalibrationv+0xfc>
    1b8a:	64 9b       	sbis	0x0c, 4	; 12
    1b8c:	6d c0       	rjmp	.+218    	; 0x1c68 <_Z18stepperCalibrationv+0x1d0>
	char menuSelection;
	//Stepper test loop for delay 
	stepperSettings:
	menuSelection = 0;
	menu3Display(menuSelection);
	while(1){
    1b8e:	81 2f       	mov	r24, r17
		}
		menu3Display(menuSelection);
	}
	valueSelection:
	//Change from ADC1 to ADC 2 *** must change back
	ADMUX = (ADMUX & ~_BV(MUX0)) | _BV(MUX1);
    1b90:	7a dd       	rcall	.-1292   	; 0x1686 <_Z12menu3Displayh>
    1b92:	ae cf       	rjmp	.-164    	; 0x1af0 <_Z18stepperCalibrationv+0x58>
    1b94:	f7 01       	movw	r30, r14
    1b96:	80 81       	ld	r24, Z
    1b98:	8c 7f       	andi	r24, 0xFC	; 252
	//Left shifted
	ADMUX |= _BV(ADLAR);
    1b9a:	82 60       	ori	r24, 0x02	; 2
    1b9c:	80 83       	st	Z, r24
    1b9e:	80 81       	ld	r24, Z
	//Disable ADC interrupt
	ADCSRA &= ~_BV(ADIE);
    1ba0:	80 62       	ori	r24, 0x20	; 32
    1ba2:	80 83       	st	Z, r24
    1ba4:	88 81       	ld	r24, Y
	
	menuSelection = 0;
	menuDisplayValue(*calibSelectedValue, valueLabel);
    1ba6:	87 7f       	andi	r24, 0xF7	; 247
    1ba8:	88 83       	st	Y, r24
    1baa:	e0 91 3b 06 	lds	r30, 0x063B	; 0x80063b <calibSelectedValue>
    1bae:	f0 91 3c 06 	lds	r31, 0x063C	; 0x80063c <calibSelectedValue+0x1>
    1bb2:	80 81       	ld	r24, Z
    1bb4:	60 91 36 06 	lds	r22, 0x0636	; 0x800636 <valueLabel>
    1bb8:	70 91 37 06 	lds	r23, 0x0637	; 0x800637 <valueLabel+0x1>
	while(1){
		//Start ADC conversion
		ADCSRA |= _BV(ADSC);
    1bbc:	44 dd       	rcall	.-1400   	; 0x1646 <_Z16menuDisplayValuehPKc>
    1bbe:	88 81       	ld	r24, Y
		while(ADCSRA & _BV(ADSC)){}; //wait for conversion to finish
    1bc0:	80 64       	ori	r24, 0x40	; 64
    1bc2:	88 83       	st	Y, r24
    1bc4:	88 81       	ld	r24, Y
		
		if(adcEightCount < 8){
    1bc6:	86 fd       	sbrc	r24, 6
    1bc8:	fd cf       	rjmp	.-6      	; 0x1bc4 <_Z18stepperCalibrationv+0x12c>
    1bca:	80 91 38 06 	lds	r24, 0x0638	; 0x800638 <adcEightCount>
			adcEightAverage = adcEightAverage + ADCH - (adcEightAverage >> 3); //MA[n]* = MA[n-1]* + x[n] - MA[n-1]*/N
    1bce:	88 30       	cpi	r24, 0x08	; 8
    1bd0:	d0 f4       	brcc	.+52     	; 0x1c06 <_Z18stepperCalibrationv+0x16e>
    1bd2:	f5 01       	movw	r30, r10
    1bd4:	90 81       	ld	r25, Z
    1bd6:	20 91 39 06 	lds	r18, 0x0639	; 0x800639 <adcEightAverage>
    1bda:	30 91 3a 06 	lds	r19, 0x063A	; 0x80063a <adcEightAverage+0x1>
    1bde:	a9 01       	movw	r20, r18
    1be0:	49 0f       	add	r20, r25
    1be2:	51 1d       	adc	r21, r1
    1be4:	36 95       	lsr	r19
    1be6:	27 95       	ror	r18
    1be8:	36 95       	lsr	r19
    1bea:	27 95       	ror	r18
    1bec:	36 95       	lsr	r19
    1bee:	27 95       	ror	r18
    1bf0:	ba 01       	movw	r22, r20
    1bf2:	62 1b       	sub	r22, r18
    1bf4:	73 0b       	sbc	r23, r19
    1bf6:	70 93 3a 06 	sts	0x063A, r23	; 0x80063a <adcEightAverage+0x1>
			adcEightCount++;
    1bfa:	60 93 39 06 	sts	0x0639, r22	; 0x800639 <adcEightAverage>
    1bfe:	8f 5f       	subi	r24, 0xFF	; 255
    1c00:	80 93 38 06 	sts	0x0638, r24	; 0x800638 <adcEightCount>
		}
		else{
			//adcEightAverage >>= 3;	//MA*/N
			*calibSelectedValue = adcEightAverage >> 3;
    1c04:	1b c0       	rjmp	.+54     	; 0x1c3c <_Z18stepperCalibrationv+0x1a4>
    1c06:	e0 91 3b 06 	lds	r30, 0x063B	; 0x80063b <calibSelectedValue>
    1c0a:	f0 91 3c 06 	lds	r31, 0x063C	; 0x80063c <calibSelectedValue+0x1>
    1c0e:	80 91 39 06 	lds	r24, 0x0639	; 0x800639 <adcEightAverage>
    1c12:	90 91 3a 06 	lds	r25, 0x063A	; 0x80063a <adcEightAverage+0x1>
    1c16:	96 95       	lsr	r25
    1c18:	87 95       	ror	r24
    1c1a:	96 95       	lsr	r25
    1c1c:	87 95       	ror	r24
			menuDisplayValue(*calibSelectedValue, valueLabel);
    1c1e:	96 95       	lsr	r25
    1c20:	87 95       	ror	r24
    1c22:	80 83       	st	Z, r24
    1c24:	e0 91 3b 06 	lds	r30, 0x063B	; 0x80063b <calibSelectedValue>
    1c28:	f0 91 3c 06 	lds	r31, 0x063C	; 0x80063c <calibSelectedValue+0x1>
    1c2c:	80 81       	ld	r24, Z
    1c2e:	60 91 36 06 	lds	r22, 0x0636	; 0x800636 <valueLabel>
			
			adcEightCount = 0;
		}
		if(JS_LEFT_PRESSED){
    1c32:	70 91 37 06 	lds	r23, 0x0637	; 0x800637 <valueLabel+0x1>
			mTimer(BUTTON_DEBOUNCE_DELAY);
    1c36:	07 dd       	rcall	.-1522   	; 0x1646 <_Z16menuDisplayValuehPKc>
    1c38:	10 92 38 06 	sts	0x0638, r1	; 0x800638 <adcEightCount>
    1c3c:	1e 99       	sbic	0x03, 6	; 3
			while(JS_LEFT_PRESSED){};
    1c3e:	bf cf       	rjmp	.-130    	; 0x1bbe <_Z18stepperCalibrationv+0x126>
    1c40:	84 e1       	ldi	r24, 0x14	; 20
			mTimer(BUTTON_DEBOUNCE_DELAY);
    1c42:	90 e0       	ldi	r25, 0x00	; 0
    1c44:	d2 d1       	rcall	.+932    	; 0x1fea <_Z6mTimeri>
    1c46:	1e 9b       	sbis	0x03, 6	; 3
			//Change back from ADC 2 to 1
			ADMUX = (ADMUX & ~_BV(MUX1)) | _BV(MUX0);
    1c48:	fe cf       	rjmp	.-4      	; 0x1c46 <_Z18stepperCalibrationv+0x1ae>
    1c4a:	84 e1       	ldi	r24, 0x14	; 20
			//Turn off left shifted
			ADMUX &= ~_BV(ADLAR);
    1c4c:	90 e0       	ldi	r25, 0x00	; 0
    1c4e:	cd d1       	rcall	.+922    	; 0x1fea <_Z6mTimeri>
    1c50:	f7 01       	movw	r30, r14
			//Reenable ADC interrupt
			ADCSRA |= _BV(ADIE);
    1c52:	80 81       	ld	r24, Z
    1c54:	8c 7f       	andi	r24, 0xFC	; 252
    1c56:	81 60       	ori	r24, 0x01	; 1
		}

	}
	
	startStepperTest:
	menu3Running();
    1c58:	80 83       	st	Z, r24
	homeStepper();
    1c5a:	80 81       	ld	r24, Z
    1c5c:	8f 7d       	andi	r24, 0xDF	; 223
	startStepper();
    1c5e:	80 83       	st	Z, r24
	stepGoalPosition = 0;
    1c60:	88 81       	ld	r24, Y
    1c62:	88 60       	ori	r24, 0x08	; 8
    1c64:	88 83       	st	Y, r24
    1c66:	41 cf       	rjmp	.-382    	; 0x1aea <_Z18stepperCalibrationv+0x52>
	sei();
    1c68:	71 dd       	rcall	.-1310   	; 0x174c <_Z12menu3Runningv>
	while(1){
		//rotateStepperToGoal();
		if((PINE & JS_DOWN_PIN) == 0){
    1c6a:	03 df       	rcall	.-506    	; 0x1a72 <_Z11homeStepperv>
    1c6c:	7c de       	rcall	.-776    	; 0x1966 <_Z12startStepperv>
			mTimer(20);
    1c6e:	10 92 41 06 	sts	0x0641, r1	; 0x800641 <stepGoalPosition+0x1>
    1c72:	10 92 40 06 	sts	0x0640, r1	; 0x800640 <stepGoalPosition>
			while((PINE & JS_DOWN_PIN) == 0){};
    1c76:	78 94       	sei
    1c78:	65 99       	sbic	0x0c, 5	; 12
			mTimer(20);
    1c7a:	1b c0       	rjmp	.+54     	; 0x1cb2 <_Z18stepperCalibrationv+0x21a>
    1c7c:	84 e1       	ldi	r24, 0x14	; 20
    1c7e:	90 e0       	ldi	r25, 0x00	; 0
    1c80:	b4 d1       	rcall	.+872    	; 0x1fea <_Z6mTimeri>
			stepGoalPosition -=50;
    1c82:	65 9b       	sbis	0x0c, 5	; 12
    1c84:	fe cf       	rjmp	.-4      	; 0x1c82 <_Z18stepperCalibrationv+0x1ea>
    1c86:	84 e1       	ldi	r24, 0x14	; 20
    1c88:	90 e0       	ldi	r25, 0x00	; 0
    1c8a:	af d1       	rcall	.+862    	; 0x1fea <_Z6mTimeri>
    1c8c:	80 91 40 06 	lds	r24, 0x0640	; 0x800640 <stepGoalPosition>
    1c90:	90 91 41 06 	lds	r25, 0x0641	; 0x800641 <stepGoalPosition+0x1>
			if(stepGoalPosition < 0){
    1c94:	c2 97       	sbiw	r24, 0x32	; 50
    1c96:	90 93 41 06 	sts	0x0641, r25	; 0x800641 <stepGoalPosition+0x1>
    1c9a:	80 93 40 06 	sts	0x0640, r24	; 0x800640 <stepGoalPosition>
				stepGoalPosition = 150;
    1c9e:	80 91 40 06 	lds	r24, 0x0640	; 0x800640 <stepGoalPosition>
    1ca2:	90 91 41 06 	lds	r25, 0x0641	; 0x800641 <stepGoalPosition+0x1>
			}
		}
		//If Joystick Up -> highlight Start
		if((PINB & JS_UP_PIN) == 0){
    1ca6:	99 23       	and	r25, r25
			mTimer(20);
    1ca8:	24 f4       	brge	.+8      	; 0x1cb2 <_Z18stepperCalibrationv+0x21a>
    1caa:	d0 92 41 06 	sts	0x0641, r13	; 0x800641 <stepGoalPosition+0x1>
    1cae:	c0 92 40 06 	sts	0x0640, r12	; 0x800640 <stepGoalPosition>
			while((PINB & JS_UP_PIN) == 0){};
    1cb2:	1f 99       	sbic	0x03, 7	; 3
			mTimer(20);
    1cb4:	1c c0       	rjmp	.+56     	; 0x1cee <_Z18stepperCalibrationv+0x256>
    1cb6:	84 e1       	ldi	r24, 0x14	; 20
    1cb8:	90 e0       	ldi	r25, 0x00	; 0
    1cba:	97 d1       	rcall	.+814    	; 0x1fea <_Z6mTimeri>
			stepGoalPosition +=50;
    1cbc:	1f 9b       	sbis	0x03, 7	; 3
    1cbe:	fe cf       	rjmp	.-4      	; 0x1cbc <_Z18stepperCalibrationv+0x224>
    1cc0:	84 e1       	ldi	r24, 0x14	; 20
    1cc2:	90 e0       	ldi	r25, 0x00	; 0
    1cc4:	92 d1       	rcall	.+804    	; 0x1fea <_Z6mTimeri>
    1cc6:	80 91 40 06 	lds	r24, 0x0640	; 0x800640 <stepGoalPosition>
    1cca:	90 91 41 06 	lds	r25, 0x0641	; 0x800641 <stepGoalPosition+0x1>
			if(stepGoalPosition > 199){
    1cce:	c2 96       	adiw	r24, 0x32	; 50
    1cd0:	90 93 41 06 	sts	0x0641, r25	; 0x800641 <stepGoalPosition+0x1>
    1cd4:	80 93 40 06 	sts	0x0640, r24	; 0x800640 <stepGoalPosition>
    1cd8:	80 91 40 06 	lds	r24, 0x0640	; 0x800640 <stepGoalPosition>
				stepGoalPosition = 0;
    1cdc:	90 91 41 06 	lds	r25, 0x0641	; 0x800641 <stepGoalPosition+0x1>
    1ce0:	88 3c       	cpi	r24, 0xC8	; 200
			}
		}
		if((JS_LEFT_PORT & JS_LEFT_PIN) == 0){
    1ce2:	91 05       	cpc	r25, r1
    1ce4:	24 f0       	brlt	.+8      	; 0x1cee <_Z18stepperCalibrationv+0x256>
			cli();
    1ce6:	10 92 41 06 	sts	0x0641, r1	; 0x800641 <stepGoalPosition+0x1>
			goto stepperSettings;
		}
		menuDebugS();
    1cea:	10 92 40 06 	sts	0x0640, r1	; 0x800640 <stepGoalPosition>
	menu3Running();
	homeStepper();
	startStepper();
	stepGoalPosition = 0;
	sei();
	while(1){
    1cee:	1e 99       	sbic	0x03, 6	; 3
    1cf0:	02 c0       	rjmp	.+4      	; 0x1cf6 <_Z18stepperCalibrationv+0x25e>
    1cf2:	f8 94       	cli
    1cf4:	fa ce       	rjmp	.-524    	; 0x1aea <_Z18stepperCalibrationv+0x52>
    1cf6:	dc db       	rcall	.-2120   	; 0x14b0 <_Z10menuDebugSv>
    1cf8:	bf cf       	rjmp	.-130    	; 0x1c78 <_Z18stepperCalibrationv+0x1e0>

00001cfa <__vector_21>:
		}
		menuDebugS();
	}
}

ISR(TIMER0_COMPA_vect){
    1cfa:	1f 92       	push	r1
    1cfc:	0f 92       	push	r0
    1cfe:	0f b6       	in	r0, 0x3f	; 63
    1d00:	0f 92       	push	r0
    1d02:	11 24       	eor	r1, r1
    1d04:	0b b6       	in	r0, 0x3b	; 59
    1d06:	0f 92       	push	r0
    1d08:	2f 93       	push	r18
    1d0a:	3f 93       	push	r19
    1d0c:	4f 93       	push	r20
    1d0e:	5f 93       	push	r21
    1d10:	8f 93       	push	r24
    1d12:	9f 93       	push	r25
    1d14:	ef 93       	push	r30
    1d16:	ff 93       	push	r31
	
	unsigned char nextItem = 0;
	int difference =  stepGoalPosition - stepCurrentPosition;
    1d18:	80 91 40 06 	lds	r24, 0x0640	; 0x800640 <stepGoalPosition>
    1d1c:	90 91 41 06 	lds	r25, 0x0641	; 0x800641 <stepGoalPosition+0x1>
    1d20:	20 91 42 06 	lds	r18, 0x0642	; 0x800642 <stepCurrentPosition>
    1d24:	30 91 43 06 	lds	r19, 0x0643	; 0x800643 <stepCurrentPosition+0x1>
    1d28:	82 1b       	sub	r24, r18
    1d2a:	93 0b       	sbc	r25, r19
	unsigned char shortAbsDifference = ((difference >= 0) ? difference : -difference);//abs(difference)
    1d2c:	9c 01       	movw	r18, r24
    1d2e:	22 f4       	brpl	.+8      	; 0x1d38 <__vector_21+0x3e>
    1d30:	22 27       	eor	r18, r18
    1d32:	33 27       	eor	r19, r19
    1d34:	28 1b       	sub	r18, r24
    1d36:	39 0b       	sbc	r19, r25
    1d38:	42 2f       	mov	r20, r18
	
	//Find circular shortest distance
	if(shortAbsDifference > 100){
    1d3a:	25 36       	cpi	r18, 0x65	; 101
    1d3c:	10 f0       	brcs	.+4      	; 0x1d42 <__vector_21+0x48>
		shortAbsDifference = 200 - shortAbsDifference;
    1d3e:	48 ec       	ldi	r20, 0xC8	; 200
    1d40:	42 1b       	sub	r20, r18
				delay
		else
			stepper ready
*/
	//////////PLACE BLOCK INTO BIN ONCE CLOSE ENOUGH
	if(shortAbsDifference < CLOSE_ENOUGH){
    1d42:	4f 30       	cpi	r20, 0x0F	; 15
    1d44:	08 f0       	brcs	.+2      	; 0x1d48 <__vector_21+0x4e>
    1d46:	b9 c0       	rjmp	.+370    	; 0x1eba <__vector_21+0x1c0>
		if(waitToReachGoal){
    1d48:	20 91 35 06 	lds	r18, 0x0635	; 0x800635 <waitToReachGoal>
    1d4c:	22 23       	and	r18, r18
    1d4e:	09 f4       	brne	.+2      	; 0x1d52 <__vector_21+0x58>
    1d50:	45 c0       	rjmp	.+138    	; 0x1ddc <__vector_21+0xe2>
			stepperReady = 0; //*** this may not be needed?
    1d52:	10 92 3e 06 	sts	0x063E, r1	; 0x80063e <stepperReady>
			PORTC = 0x0;
    1d56:	18 b8       	out	0x08, r1	; 8
			if(shortAbsDifference == 0){ //*** needs to be tested
    1d58:	41 11       	cpse	r20, r1
    1d5a:	b2 c0       	rjmp	.+356    	; 0x1ec0 <__vector_21+0x1c6>
				stepperDelay = 1;
    1d5c:	21 e0       	ldi	r18, 0x01	; 1
    1d5e:	20 93 0f 01 	sts	0x010F, r18	; 0x80010f <stepperDelay>
				waitToReachGoal = 0;
    1d62:	10 92 35 06 	sts	0x0635, r1	; 0x800635 <waitToReachGoal>
				//reflQueueChange = 1;
				if(reflQueue[frontOfQueue] == BLACK){
    1d66:	e0 91 29 02 	lds	r30, 0x0229	; 0x800229 <frontOfQueue>
    1d6a:	f0 e0       	ldi	r31, 0x00	; 0
    1d6c:	e5 5d       	subi	r30, 0xD5	; 213
    1d6e:	fd 4f       	sbci	r31, 0xFD	; 253
    1d70:	20 81       	ld	r18, Z
    1d72:	21 11       	cpse	r18, r1
    1d74:	05 c0       	rjmp	.+10     	; 0x1d80 <__vector_21+0x86>
					stepGoalPosition = STEPPER_BLACK_POSITION;
    1d76:	10 92 41 06 	sts	0x0641, r1	; 0x800641 <stepGoalPosition+0x1>
    1d7a:	10 92 40 06 	sts	0x0640, r1	; 0x800640 <stepGoalPosition>
    1d7e:	a0 c0       	rjmp	.+320    	; 0x1ec0 <__vector_21+0x1c6>
				}
				else if(reflQueue[frontOfQueue] == WHITE){
    1d80:	e0 91 29 02 	lds	r30, 0x0229	; 0x800229 <frontOfQueue>
    1d84:	f0 e0       	ldi	r31, 0x00	; 0
    1d86:	e5 5d       	subi	r30, 0xD5	; 213
    1d88:	fd 4f       	sbci	r31, 0xFD	; 253
    1d8a:	20 81       	ld	r18, Z
    1d8c:	21 30       	cpi	r18, 0x01	; 1
    1d8e:	39 f4       	brne	.+14     	; 0x1d9e <__vector_21+0xa4>
					stepGoalPosition = STEPPER_WHITE_POSITION;
    1d90:	24 e6       	ldi	r18, 0x64	; 100
    1d92:	30 e0       	ldi	r19, 0x00	; 0
    1d94:	30 93 41 06 	sts	0x0641, r19	; 0x800641 <stepGoalPosition+0x1>
    1d98:	20 93 40 06 	sts	0x0640, r18	; 0x800640 <stepGoalPosition>
    1d9c:	91 c0       	rjmp	.+290    	; 0x1ec0 <__vector_21+0x1c6>
				}
				else if(reflQueue[frontOfQueue] == STEEL){
    1d9e:	e0 91 29 02 	lds	r30, 0x0229	; 0x800229 <frontOfQueue>
    1da2:	f0 e0       	ldi	r31, 0x00	; 0
    1da4:	e5 5d       	subi	r30, 0xD5	; 213
    1da6:	fd 4f       	sbci	r31, 0xFD	; 253
    1da8:	20 81       	ld	r18, Z
    1daa:	22 30       	cpi	r18, 0x02	; 2
    1dac:	39 f4       	brne	.+14     	; 0x1dbc <__vector_21+0xc2>
					stepGoalPosition = STEPPER_STEEL_POSITION;
    1dae:	26 e9       	ldi	r18, 0x96	; 150
    1db0:	30 e0       	ldi	r19, 0x00	; 0
    1db2:	30 93 41 06 	sts	0x0641, r19	; 0x800641 <stepGoalPosition+0x1>
    1db6:	20 93 40 06 	sts	0x0640, r18	; 0x800640 <stepGoalPosition>
    1dba:	82 c0       	rjmp	.+260    	; 0x1ec0 <__vector_21+0x1c6>
				}
				else if(reflQueue[frontOfQueue] == ALUMINUM){
    1dbc:	e0 91 29 02 	lds	r30, 0x0229	; 0x800229 <frontOfQueue>
    1dc0:	f0 e0       	ldi	r31, 0x00	; 0
    1dc2:	e5 5d       	subi	r30, 0xD5	; 213
    1dc4:	fd 4f       	sbci	r31, 0xFD	; 253
    1dc6:	20 81       	ld	r18, Z
    1dc8:	23 30       	cpi	r18, 0x03	; 3
    1dca:	09 f0       	breq	.+2      	; 0x1dce <__vector_21+0xd4>
    1dcc:	79 c0       	rjmp	.+242    	; 0x1ec0 <__vector_21+0x1c6>
					stepGoalPosition = STEPPER_ALUMINIUM_POSITION;
    1dce:	22 e3       	ldi	r18, 0x32	; 50
    1dd0:	30 e0       	ldi	r19, 0x00	; 0
    1dd2:	30 93 41 06 	sts	0x0641, r19	; 0x800641 <stepGoalPosition+0x1>
    1dd6:	20 93 40 06 	sts	0x0640, r18	; 0x800640 <stepGoalPosition>
    1dda:	72 c0       	rjmp	.+228    	; 0x1ec0 <__vector_21+0x1c6>
				}
			}
		}
		else if(blockReady){
    1ddc:	20 91 22 02 	lds	r18, 0x0222	; 0x800222 <__data_end>
    1de0:	22 23       	and	r18, r18
    1de2:	09 f4       	brne	.+2      	; 0x1de6 <__vector_21+0xec>
    1de4:	64 c0       	rjmp	.+200    	; 0x1eae <__vector_21+0x1b4>
			stepperReady = 0;
    1de6:	10 92 3e 06 	sts	0x063E, r1	; 0x80063e <stepperReady>
			PORTC = 0xf;
    1dea:	2f e0       	ldi	r18, 0x0F	; 15
    1dec:	28 b9       	out	0x08, r18	; 8
			//////////MOTOR ON
			MOTOR_PORT = (MOTOR_PORT & ~MOTOR_PINS) | MOTOR_FORWARD;
    1dee:	22 b1       	in	r18, 0x02	; 2
    1df0:	2f 73       	andi	r18, 0x3F	; 63
    1df2:	20 64       	ori	r18, 0x40	; 64
    1df4:	22 b9       	out	0x02, r18	; 2
			blockReady = 0;
    1df6:	10 92 22 02 	sts	0x0222, r1	; 0x800222 <__data_end>
			//////////COUNT NUMBER OF EACH SORTED
			if(reflQueue[frontOfQueue] == BLACK){
    1dfa:	e0 91 29 02 	lds	r30, 0x0229	; 0x800229 <frontOfQueue>
    1dfe:	f0 e0       	ldi	r31, 0x00	; 0
    1e00:	e5 5d       	subi	r30, 0xD5	; 213
    1e02:	fd 4f       	sbci	r31, 0xFD	; 253
    1e04:	20 81       	ld	r18, Z
    1e06:	21 11       	cpse	r18, r1
    1e08:	06 c0       	rjmp	.+12     	; 0x1e16 <__vector_21+0x11c>
				blackCount++;
    1e0a:	20 91 26 02 	lds	r18, 0x0226	; 0x800226 <blackCount>
    1e0e:	2f 5f       	subi	r18, 0xFF	; 255
    1e10:	20 93 26 02 	sts	0x0226, r18	; 0x800226 <blackCount>
    1e14:	29 c0       	rjmp	.+82     	; 0x1e68 <__vector_21+0x16e>
			}
			else if(reflQueue[frontOfQueue] == WHITE){
    1e16:	e0 91 29 02 	lds	r30, 0x0229	; 0x800229 <frontOfQueue>
    1e1a:	f0 e0       	ldi	r31, 0x00	; 0
    1e1c:	e5 5d       	subi	r30, 0xD5	; 213
    1e1e:	fd 4f       	sbci	r31, 0xFD	; 253
    1e20:	20 81       	ld	r18, Z
    1e22:	21 30       	cpi	r18, 0x01	; 1
    1e24:	31 f4       	brne	.+12     	; 0x1e32 <__vector_21+0x138>
				whiteCount++;
    1e26:	20 91 25 02 	lds	r18, 0x0225	; 0x800225 <whiteCount>
    1e2a:	2f 5f       	subi	r18, 0xFF	; 255
    1e2c:	20 93 25 02 	sts	0x0225, r18	; 0x800225 <whiteCount>
    1e30:	1b c0       	rjmp	.+54     	; 0x1e68 <__vector_21+0x16e>
			}
			else if(reflQueue[frontOfQueue] == STEEL){
    1e32:	e0 91 29 02 	lds	r30, 0x0229	; 0x800229 <frontOfQueue>
    1e36:	f0 e0       	ldi	r31, 0x00	; 0
    1e38:	e5 5d       	subi	r30, 0xD5	; 213
    1e3a:	fd 4f       	sbci	r31, 0xFD	; 253
    1e3c:	20 81       	ld	r18, Z
    1e3e:	22 30       	cpi	r18, 0x02	; 2
    1e40:	31 f4       	brne	.+12     	; 0x1e4e <__vector_21+0x154>
				steelCount++;
    1e42:	20 91 24 02 	lds	r18, 0x0224	; 0x800224 <steelCount>
    1e46:	2f 5f       	subi	r18, 0xFF	; 255
    1e48:	20 93 24 02 	sts	0x0224, r18	; 0x800224 <steelCount>
    1e4c:	0d c0       	rjmp	.+26     	; 0x1e68 <__vector_21+0x16e>
			}
			else if(reflQueue[frontOfQueue] == ALUMINUM){
    1e4e:	e0 91 29 02 	lds	r30, 0x0229	; 0x800229 <frontOfQueue>
    1e52:	f0 e0       	ldi	r31, 0x00	; 0
    1e54:	e5 5d       	subi	r30, 0xD5	; 213
    1e56:	fd 4f       	sbci	r31, 0xFD	; 253
    1e58:	20 81       	ld	r18, Z
    1e5a:	23 30       	cpi	r18, 0x03	; 3
    1e5c:	29 f4       	brne	.+10     	; 0x1e68 <__vector_21+0x16e>
				aluminumCount++;
    1e5e:	20 91 23 02 	lds	r18, 0x0223	; 0x800223 <aluminumCount>
    1e62:	2f 5f       	subi	r18, 0xFF	; 255
    1e64:	20 93 23 02 	sts	0x0223, r18	; 0x800223 <aluminumCount>
			}
			//////////DEQUEUE BLOCK
			if(reflQueueCount < 2){
    1e68:	20 91 2a 02 	lds	r18, 0x022A	; 0x80022a <reflQueueCount>
    1e6c:	22 30       	cpi	r18, 0x02	; 2
    1e6e:	18 f4       	brcc	.+6      	; 0x1e76 <__vector_21+0x17c>
				reflQueueCount = 0;
    1e70:	10 92 2a 02 	sts	0x022A, r1	; 0x80022a <reflQueueCount>
    1e74:	25 c0       	rjmp	.+74     	; 0x1ec0 <__vector_21+0x1c6>
			}
			else{
				nextItem = (frontOfQueue+1) & 7;
    1e76:	20 91 29 02 	lds	r18, 0x0229	; 0x800229 <frontOfQueue>
    1e7a:	2f 5f       	subi	r18, 0xFF	; 255
    1e7c:	27 70       	andi	r18, 0x07	; 7
				
				if(reflQueue[frontOfQueue] != reflQueue[nextItem]){
    1e7e:	e0 91 29 02 	lds	r30, 0x0229	; 0x800229 <frontOfQueue>
    1e82:	f0 e0       	ldi	r31, 0x00	; 0
    1e84:	e5 5d       	subi	r30, 0xD5	; 213
    1e86:	fd 4f       	sbci	r31, 0xFD	; 253
    1e88:	50 81       	ld	r21, Z
    1e8a:	e2 2f       	mov	r30, r18
    1e8c:	f0 e0       	ldi	r31, 0x00	; 0
    1e8e:	e5 5d       	subi	r30, 0xD5	; 213
    1e90:	fd 4f       	sbci	r31, 0xFD	; 253
    1e92:	30 81       	ld	r19, Z
    1e94:	53 17       	cp	r21, r19
    1e96:	19 f0       	breq	.+6      	; 0x1e9e <__vector_21+0x1a4>
					waitToReachGoal = 1;
    1e98:	31 e0       	ldi	r19, 0x01	; 1
    1e9a:	30 93 35 06 	sts	0x0635, r19	; 0x800635 <waitToReachGoal>
				}
				frontOfQueue = nextItem; //& 7 implements a rotating array pointer
    1e9e:	20 93 29 02 	sts	0x0229, r18	; 0x800229 <frontOfQueue>
				reflQueueCount--;
    1ea2:	20 91 2a 02 	lds	r18, 0x022A	; 0x80022a <reflQueueCount>
    1ea6:	21 50       	subi	r18, 0x01	; 1
    1ea8:	20 93 2a 02 	sts	0x022A, r18	; 0x80022a <reflQueueCount>
    1eac:	09 c0       	rjmp	.+18     	; 0x1ec0 <__vector_21+0x1c6>
			}
		} 
		else{
			stepperReady = 1;
    1eae:	21 e0       	ldi	r18, 0x01	; 1
    1eb0:	20 93 3e 06 	sts	0x063E, r18	; 0x80063e <stepperReady>
			PORTC = 0xf;
    1eb4:	2f e0       	ldi	r18, 0x0F	; 15
    1eb6:	28 b9       	out	0x08, r18	; 8
    1eb8:	03 c0       	rjmp	.+6      	; 0x1ec0 <__vector_21+0x1c6>
		}
	}
	else{
		stepperReady = 0;
    1eba:	10 92 3e 06 	sts	0x063E, r1	; 0x80063e <stepperReady>
		PORTC = 0;
    1ebe:	18 b8       	out	0x08, r1	; 8
	}
	//////////MOVE TOWARDS GOAL POSITION
	if(((difference > 0) && (difference < 100)) || (difference < -100)){//***change to make up for faster direction of stepper
    1ec0:	9c 01       	movw	r18, r24
    1ec2:	21 50       	subi	r18, 0x01	; 1
    1ec4:	31 09       	sbc	r19, r1
    1ec6:	23 36       	cpi	r18, 0x63	; 99
    1ec8:	31 05       	cpc	r19, r1
    1eca:	20 f0       	brcs	.+8      	; 0x1ed4 <__vector_21+0x1da>
    1ecc:	8c 39       	cpi	r24, 0x9C	; 156
    1ece:	2f ef       	ldi	r18, 0xFF	; 255
    1ed0:	92 07       	cpc	r25, r18
    1ed2:	dc f4       	brge	.+54     	; 0x1f0a <__vector_21+0x210>
		stepCurrentPosition++;
    1ed4:	80 91 42 06 	lds	r24, 0x0642	; 0x800642 <stepCurrentPosition>
    1ed8:	90 91 43 06 	lds	r25, 0x0643	; 0x800643 <stepCurrentPosition+0x1>
    1edc:	01 96       	adiw	r24, 0x01	; 1
    1ede:	90 93 43 06 	sts	0x0643, r25	; 0x800643 <stepCurrentPosition+0x1>
    1ee2:	80 93 42 06 	sts	0x0642, r24	; 0x800642 <stepCurrentPosition>
		if(stepCurrentPosition > 199){
    1ee6:	80 91 42 06 	lds	r24, 0x0642	; 0x800642 <stepCurrentPosition>
    1eea:	90 91 43 06 	lds	r25, 0x0643	; 0x800643 <stepCurrentPosition+0x1>
    1eee:	88 3c       	cpi	r24, 0xC8	; 200
    1ef0:	91 05       	cpc	r25, r1
    1ef2:	24 f0       	brlt	.+8      	; 0x1efc <__vector_21+0x202>
			stepCurrentPosition = 0;
    1ef4:	10 92 43 06 	sts	0x0643, r1	; 0x800643 <stepCurrentPosition+0x1>
    1ef8:	10 92 42 06 	sts	0x0642, r1	; 0x800642 <stepCurrentPosition>
		}
		stepAPosition = (stepAPosition + 1) & 3; //& 3 is a bitwise version of %4, creates a circular loop through stepArray	
    1efc:	80 91 3f 06 	lds	r24, 0x063F	; 0x80063f <stepAPosition>
    1f00:	8f 5f       	subi	r24, 0xFF	; 255
    1f02:	83 70       	andi	r24, 0x03	; 3
    1f04:	80 93 3f 06 	sts	0x063F, r24	; 0x80063f <stepAPosition>
    1f08:	24 c0       	rjmp	.+72     	; 0x1f52 <__vector_21+0x258>
	}
	else if(((difference < 0) && (difference >= -100)) || (difference >= 100)){
    1f0a:	9c 01       	movw	r18, r24
    1f0c:	2c 59       	subi	r18, 0x9C	; 156
    1f0e:	3f 4f       	sbci	r19, 0xFF	; 255
    1f10:	24 36       	cpi	r18, 0x64	; 100
    1f12:	31 05       	cpc	r19, r1
    1f14:	18 f0       	brcs	.+6      	; 0x1f1c <__vector_21+0x222>
    1f16:	84 36       	cpi	r24, 0x64	; 100
    1f18:	91 05       	cpc	r25, r1
    1f1a:	dc f0       	brlt	.+54     	; 0x1f52 <__vector_21+0x258>
		stepCurrentPosition--;
    1f1c:	80 91 42 06 	lds	r24, 0x0642	; 0x800642 <stepCurrentPosition>
    1f20:	90 91 43 06 	lds	r25, 0x0643	; 0x800643 <stepCurrentPosition+0x1>
    1f24:	01 97       	sbiw	r24, 0x01	; 1
    1f26:	90 93 43 06 	sts	0x0643, r25	; 0x800643 <stepCurrentPosition+0x1>
    1f2a:	80 93 42 06 	sts	0x0642, r24	; 0x800642 <stepCurrentPosition>
		if(stepCurrentPosition < 0){
    1f2e:	80 91 42 06 	lds	r24, 0x0642	; 0x800642 <stepCurrentPosition>
    1f32:	90 91 43 06 	lds	r25, 0x0643	; 0x800643 <stepCurrentPosition+0x1>
    1f36:	99 23       	and	r25, r25
    1f38:	34 f4       	brge	.+12     	; 0x1f46 <__vector_21+0x24c>
			stepCurrentPosition = 199;
    1f3a:	87 ec       	ldi	r24, 0xC7	; 199
    1f3c:	90 e0       	ldi	r25, 0x00	; 0
    1f3e:	90 93 43 06 	sts	0x0643, r25	; 0x800643 <stepCurrentPosition+0x1>
    1f42:	80 93 42 06 	sts	0x0642, r24	; 0x800642 <stepCurrentPosition>
		}
		//***
		stepAPosition = (stepAPosition - 1) & 3; //& 3 is a bitwise %4, creates a circular loop through stepArray
    1f46:	80 91 3f 06 	lds	r24, 0x063F	; 0x80063f <stepAPosition>
    1f4a:	81 50       	subi	r24, 0x01	; 1
    1f4c:	83 70       	andi	r24, 0x03	; 3
    1f4e:	80 93 3f 06 	sts	0x063F, r24	; 0x80063f <stepAPosition>
	}

	PORTA = (PORTA & 0b11000000) | stepArray[stepAPosition];
    1f52:	82 b1       	in	r24, 0x02	; 2
    1f54:	e0 91 3f 06 	lds	r30, 0x063F	; 0x80063f <stepAPosition>
    1f58:	80 7c       	andi	r24, 0xC0	; 192
    1f5a:	f0 e0       	ldi	r31, 0x00	; 0
    1f5c:	e3 5e       	subi	r30, 0xE3	; 227
    1f5e:	fd 4f       	sbci	r31, 0xFD	; 253
    1f60:	90 81       	ld	r25, Z
    1f62:	89 2b       	or	r24, r25
    1f64:	82 b9       	out	0x02, r24	; 2

	//////////ACCELERATION/DECELERATION ***
	if(shortAbsDifference > 30 && stepperDelay > stepperMinDelay){//MIN_STEPPER_DELAY){
    1f66:	4f 31       	cpi	r20, 0x1F	; 31
    1f68:	d0 f0       	brcs	.+52     	; 0x1f9e <__vector_21+0x2a4>
    1f6a:	90 91 0f 01 	lds	r25, 0x010F	; 0x80010f <stepperDelay>
    1f6e:	80 91 0d 01 	lds	r24, 0x010D	; 0x80010d <stepperMinDelay>
    1f72:	89 17       	cp	r24, r25
    1f74:	60 f0       	brcs	.+24     	; 0x1f8e <__vector_21+0x294>
    1f76:	13 c0       	rjmp	.+38     	; 0x1f9e <__vector_21+0x2a4>
		stepperDelay -= stepperAccelRate; // STEPPER_ACCELERATION_RATE; 
	}
	else if(shortAbsDifference < NUMBER_STEPS_DECELERATION && stepperDelay <= stepperMaxDelay){//MAX_STEPPER_DELAY){
    1f78:	90 91 0f 01 	lds	r25, 0x010F	; 0x80010f <stepperDelay>
    1f7c:	80 91 0e 01 	lds	r24, 0x010E	; 0x80010e <stepperMaxDelay>
    1f80:	89 17       	cp	r24, r25
    1f82:	80 f4       	brcc	.+32     	; 0x1fa4 <__vector_21+0x2aa>
		stepperDelay += stepperAccelRate; //STEPPER_ACCELERATION_RATE;
	}
	//Set the initial value of the timer counter to 0
	TCNT0 = 0x0;
    1f84:	16 bc       	out	0x26, r1	; 38
	//Sets delay till next step
	OCR0A = stepperDelay;
    1f86:	80 91 0f 01 	lds	r24, 0x010F	; 0x80010f <stepperDelay>
    1f8a:	87 bd       	out	0x27, r24	; 39
    1f8c:	13 c0       	rjmp	.+38     	; 0x1fb4 <__vector_21+0x2ba>

	PORTA = (PORTA & 0b11000000) | stepArray[stepAPosition];

	//////////ACCELERATION/DECELERATION ***
	if(shortAbsDifference > 30 && stepperDelay > stepperMinDelay){//MIN_STEPPER_DELAY){
		stepperDelay -= stepperAccelRate; // STEPPER_ACCELERATION_RATE; 
    1f8e:	90 91 0c 01 	lds	r25, 0x010C	; 0x80010c <stepperAccelRate>
    1f92:	80 91 0f 01 	lds	r24, 0x010F	; 0x80010f <stepperDelay>
    1f96:	89 1b       	sub	r24, r25
    1f98:	80 93 0f 01 	sts	0x010F, r24	; 0x80010f <stepperDelay>
    1f9c:	f3 cf       	rjmp	.-26     	; 0x1f84 <__vector_21+0x28a>
	}
	else if(shortAbsDifference < NUMBER_STEPS_DECELERATION && stepperDelay <= stepperMaxDelay){//MAX_STEPPER_DELAY){
    1f9e:	46 30       	cpi	r20, 0x06	; 6
    1fa0:	58 f3       	brcs	.-42     	; 0x1f78 <__vector_21+0x27e>
    1fa2:	f0 cf       	rjmp	.-32     	; 0x1f84 <__vector_21+0x28a>
		stepperDelay += stepperAccelRate; //STEPPER_ACCELERATION_RATE;
    1fa4:	90 91 0c 01 	lds	r25, 0x010C	; 0x80010c <stepperAccelRate>
    1fa8:	80 91 0f 01 	lds	r24, 0x010F	; 0x80010f <stepperDelay>
    1fac:	89 0f       	add	r24, r25
    1fae:	80 93 0f 01 	sts	0x010F, r24	; 0x80010f <stepperDelay>
    1fb2:	e8 cf       	rjmp	.-48     	; 0x1f84 <__vector_21+0x28a>
	}
	//Set the initial value of the timer counter to 0
	TCNT0 = 0x0;
	//Sets delay till next step
	OCR0A = stepperDelay;
    1fb4:	ff 91       	pop	r31
    1fb6:	ef 91       	pop	r30
    1fb8:	9f 91       	pop	r25
    1fba:	8f 91       	pop	r24
    1fbc:	5f 91       	pop	r21
    1fbe:	4f 91       	pop	r20
    1fc0:	3f 91       	pop	r19
    1fc2:	2f 91       	pop	r18
    1fc4:	0f 90       	pop	r0
    1fc6:	0b be       	out	0x3b, r0	; 59
    1fc8:	0f 90       	pop	r0
    1fca:	0f be       	out	0x3f, r0	; 63
    1fcc:	0f 90       	pop	r0
    1fce:	1f 90       	pop	r1
    1fd0:	18 95       	reti

00001fd2 <_Z9initTimerv>:
#include "timer.h"

void initTimer(void){
	//Set the waveform generation mode bit to clear timer
	//on Compare Math mode (CTC) only
	TCCR1B |= _BV(WGM12);
    1fd2:	e1 e8       	ldi	r30, 0x81	; 129
    1fd4:	f0 e0       	ldi	r31, 0x00	; 0
    1fd6:	80 81       	ld	r24, Z
    1fd8:	88 60       	ori	r24, 0x08	; 8
    1fda:	80 83       	st	Z, r24
	
	//Set output compare register for 1000 cycles (1 ms)
	OCR1A = 0x3e8;
    1fdc:	88 ee       	ldi	r24, 0xE8	; 232
    1fde:	93 e0       	ldi	r25, 0x03	; 3
    1fe0:	90 93 89 00 	sts	0x0089, r25	; 0x800089 <__TEXT_REGION_LENGTH__+0x7e0089>
    1fe4:	80 93 88 00 	sts	0x0088, r24	; 0x800088 <__TEXT_REGION_LENGTH__+0x7e0088>
    1fe8:	08 95       	ret

00001fea <_Z6mTimeri>:
}

//Timer function
void mTimer(int count){
    1fea:	ac 01       	movw	r20, r24
	int i = 0;
	
	//Enable
	//Sets bit 0 of the Timer/Counter control register (prescaler)
	//CS = 0b010 (8 MHz Clock prescaled by 1/8)
	TCCR1B |= _BV(CS11);
    1fec:	e1 e8       	ldi	r30, 0x81	; 129
    1fee:	f0 e0       	ldi	r31, 0x00	; 0
    1ff0:	90 81       	ld	r25, Z
    1ff2:	92 60       	ori	r25, 0x02	; 2
    1ff4:	90 83       	st	Z, r25
	
	//Set the initial value of the timer counter to 0
	TCNT1 = 0x0;
    1ff6:	10 92 85 00 	sts	0x0085, r1	; 0x800085 <__TEXT_REGION_LENGTH__+0x7e0085>
    1ffa:	10 92 84 00 	sts	0x0084, r1	; 0x800084 <__TEXT_REGION_LENGTH__+0x7e0084>
	
	//Clear the interrupt flag and begin timer
	TIFR1 |= _BV(OCF1A);
    1ffe:	b1 9a       	sbi	0x16, 1	; 22
	OCR1A = 0x3e8;
}

//Timer function
void mTimer(int count){
	int i = 0;
    2000:	20 e0       	ldi	r18, 0x00	; 0
    2002:	30 e0       	ldi	r19, 0x00	; 0
	
	//Clear the interrupt flag and begin timer
	TIFR1 |= _BV(OCF1A);
	
	//Poll the timer to determine when the timer has reached OCR1A
	while(i<count){
    2004:	24 17       	cp	r18, r20
    2006:	35 07       	cpc	r19, r21
    2008:	44 f4       	brge	.+16     	; 0x201a <_Z6mTimeri+0x30>

		if((TIFR1 & 0x02) == 0x02){
    200a:	b1 99       	sbic	0x16, 1	; 22
    200c:	02 c0       	rjmp	.+4      	; 0x2012 <_Z6mTimeri+0x28>
    200e:	b1 9b       	sbis	0x16, 1	; 22
    2010:	fe cf       	rjmp	.-4      	; 0x200e <_Z6mTimeri+0x24>
			//Clear the interrupt flag by writing a one to the bit
			TIFR1 |= _BV(OCF1A);
    2012:	b1 9a       	sbi	0x16, 1	; 22
			
			i++; //Increment the loop counter
    2014:	2f 5f       	subi	r18, 0xFF	; 255
    2016:	3f 4f       	sbci	r19, 0xFF	; 255
    2018:	f5 cf       	rjmp	.-22     	; 0x2004 <_Z6mTimeri+0x1a>
		}
	}
	TCCR1B &= ~DISABLE_TIMER1;
    201a:	e1 e8       	ldi	r30, 0x81	; 129
    201c:	f0 e0       	ldi	r31, 0x00	; 0
    201e:	80 81       	ld	r24, Z
    2020:	88 7f       	andi	r24, 0xF8	; 248
    2022:	80 83       	st	Z, r24
    2024:	08 95       	ret

00002026 <__tablejump2__>:
    2026:	ee 0f       	add	r30, r30
    2028:	ff 1f       	adc	r31, r31
    202a:	00 24       	eor	r0, r0
    202c:	00 1c       	adc	r0, r0
    202e:	0b be       	out	0x3b, r0	; 59
    2030:	07 90       	elpm	r0, Z+
    2032:	f6 91       	elpm	r31, Z
    2034:	e0 2d       	mov	r30, r0
    2036:	09 94       	ijmp

00002038 <sprintf>:
    2038:	0f 93       	push	r16
    203a:	1f 93       	push	r17
    203c:	cf 93       	push	r28
    203e:	df 93       	push	r29
    2040:	cd b7       	in	r28, 0x3d	; 61
    2042:	de b7       	in	r29, 0x3e	; 62
    2044:	2e 97       	sbiw	r28, 0x0e	; 14
    2046:	0f b6       	in	r0, 0x3f	; 63
    2048:	f8 94       	cli
    204a:	de bf       	out	0x3e, r29	; 62
    204c:	0f be       	out	0x3f, r0	; 63
    204e:	cd bf       	out	0x3d, r28	; 61
    2050:	0d 89       	ldd	r16, Y+21	; 0x15
    2052:	1e 89       	ldd	r17, Y+22	; 0x16
    2054:	86 e0       	ldi	r24, 0x06	; 6
    2056:	8c 83       	std	Y+4, r24	; 0x04
    2058:	1a 83       	std	Y+2, r17	; 0x02
    205a:	09 83       	std	Y+1, r16	; 0x01
    205c:	8f ef       	ldi	r24, 0xFF	; 255
    205e:	9f e7       	ldi	r25, 0x7F	; 127
    2060:	9e 83       	std	Y+6, r25	; 0x06
    2062:	8d 83       	std	Y+5, r24	; 0x05
    2064:	ae 01       	movw	r20, r28
    2066:	47 5e       	subi	r20, 0xE7	; 231
    2068:	5f 4f       	sbci	r21, 0xFF	; 255
    206a:	6f 89       	ldd	r22, Y+23	; 0x17
    206c:	78 8d       	ldd	r23, Y+24	; 0x18
    206e:	ce 01       	movw	r24, r28
    2070:	01 96       	adiw	r24, 0x01	; 1
    2072:	10 d0       	rcall	.+32     	; 0x2094 <vfprintf>
    2074:	ef 81       	ldd	r30, Y+7	; 0x07
    2076:	f8 85       	ldd	r31, Y+8	; 0x08
    2078:	e0 0f       	add	r30, r16
    207a:	f1 1f       	adc	r31, r17
    207c:	10 82       	st	Z, r1
    207e:	2e 96       	adiw	r28, 0x0e	; 14
    2080:	0f b6       	in	r0, 0x3f	; 63
    2082:	f8 94       	cli
    2084:	de bf       	out	0x3e, r29	; 62
    2086:	0f be       	out	0x3f, r0	; 63
    2088:	cd bf       	out	0x3d, r28	; 61
    208a:	df 91       	pop	r29
    208c:	cf 91       	pop	r28
    208e:	1f 91       	pop	r17
    2090:	0f 91       	pop	r16
    2092:	08 95       	ret

00002094 <vfprintf>:
    2094:	2f 92       	push	r2
    2096:	3f 92       	push	r3
    2098:	4f 92       	push	r4
    209a:	5f 92       	push	r5
    209c:	6f 92       	push	r6
    209e:	7f 92       	push	r7
    20a0:	8f 92       	push	r8
    20a2:	9f 92       	push	r9
    20a4:	af 92       	push	r10
    20a6:	bf 92       	push	r11
    20a8:	cf 92       	push	r12
    20aa:	df 92       	push	r13
    20ac:	ef 92       	push	r14
    20ae:	ff 92       	push	r15
    20b0:	0f 93       	push	r16
    20b2:	1f 93       	push	r17
    20b4:	cf 93       	push	r28
    20b6:	df 93       	push	r29
    20b8:	cd b7       	in	r28, 0x3d	; 61
    20ba:	de b7       	in	r29, 0x3e	; 62
    20bc:	2b 97       	sbiw	r28, 0x0b	; 11
    20be:	0f b6       	in	r0, 0x3f	; 63
    20c0:	f8 94       	cli
    20c2:	de bf       	out	0x3e, r29	; 62
    20c4:	0f be       	out	0x3f, r0	; 63
    20c6:	cd bf       	out	0x3d, r28	; 61
    20c8:	6c 01       	movw	r12, r24
    20ca:	7b 01       	movw	r14, r22
    20cc:	8a 01       	movw	r16, r20
    20ce:	fc 01       	movw	r30, r24
    20d0:	17 82       	std	Z+7, r1	; 0x07
    20d2:	16 82       	std	Z+6, r1	; 0x06
    20d4:	83 81       	ldd	r24, Z+3	; 0x03
    20d6:	81 ff       	sbrs	r24, 1
    20d8:	bf c1       	rjmp	.+894    	; 0x2458 <__stack+0x359>
    20da:	ce 01       	movw	r24, r28
    20dc:	01 96       	adiw	r24, 0x01	; 1
    20de:	3c 01       	movw	r6, r24
    20e0:	f6 01       	movw	r30, r12
    20e2:	93 81       	ldd	r25, Z+3	; 0x03
    20e4:	f7 01       	movw	r30, r14
    20e6:	93 fd       	sbrc	r25, 3
    20e8:	85 91       	lpm	r24, Z+
    20ea:	93 ff       	sbrs	r25, 3
    20ec:	81 91       	ld	r24, Z+
    20ee:	7f 01       	movw	r14, r30
    20f0:	88 23       	and	r24, r24
    20f2:	09 f4       	brne	.+2      	; 0x20f6 <vfprintf+0x62>
    20f4:	ad c1       	rjmp	.+858    	; 0x2450 <__stack+0x351>
    20f6:	85 32       	cpi	r24, 0x25	; 37
    20f8:	39 f4       	brne	.+14     	; 0x2108 <__stack+0x9>
    20fa:	93 fd       	sbrc	r25, 3
    20fc:	85 91       	lpm	r24, Z+
    20fe:	93 ff       	sbrs	r25, 3
    2100:	81 91       	ld	r24, Z+
    2102:	7f 01       	movw	r14, r30
    2104:	85 32       	cpi	r24, 0x25	; 37
    2106:	21 f4       	brne	.+8      	; 0x2110 <__stack+0x11>
    2108:	b6 01       	movw	r22, r12
    210a:	90 e0       	ldi	r25, 0x00	; 0
    210c:	d6 d1       	rcall	.+940    	; 0x24ba <fputc>
    210e:	e8 cf       	rjmp	.-48     	; 0x20e0 <vfprintf+0x4c>
    2110:	91 2c       	mov	r9, r1
    2112:	21 2c       	mov	r2, r1
    2114:	31 2c       	mov	r3, r1
    2116:	ff e1       	ldi	r31, 0x1F	; 31
    2118:	f3 15       	cp	r31, r3
    211a:	d8 f0       	brcs	.+54     	; 0x2152 <__stack+0x53>
    211c:	8b 32       	cpi	r24, 0x2B	; 43
    211e:	79 f0       	breq	.+30     	; 0x213e <__stack+0x3f>
    2120:	38 f4       	brcc	.+14     	; 0x2130 <__stack+0x31>
    2122:	80 32       	cpi	r24, 0x20	; 32
    2124:	79 f0       	breq	.+30     	; 0x2144 <__stack+0x45>
    2126:	83 32       	cpi	r24, 0x23	; 35
    2128:	a1 f4       	brne	.+40     	; 0x2152 <__stack+0x53>
    212a:	23 2d       	mov	r18, r3
    212c:	20 61       	ori	r18, 0x10	; 16
    212e:	1d c0       	rjmp	.+58     	; 0x216a <__stack+0x6b>
    2130:	8d 32       	cpi	r24, 0x2D	; 45
    2132:	61 f0       	breq	.+24     	; 0x214c <__stack+0x4d>
    2134:	80 33       	cpi	r24, 0x30	; 48
    2136:	69 f4       	brne	.+26     	; 0x2152 <__stack+0x53>
    2138:	23 2d       	mov	r18, r3
    213a:	21 60       	ori	r18, 0x01	; 1
    213c:	16 c0       	rjmp	.+44     	; 0x216a <__stack+0x6b>
    213e:	83 2d       	mov	r24, r3
    2140:	82 60       	ori	r24, 0x02	; 2
    2142:	38 2e       	mov	r3, r24
    2144:	e3 2d       	mov	r30, r3
    2146:	e4 60       	ori	r30, 0x04	; 4
    2148:	3e 2e       	mov	r3, r30
    214a:	2a c0       	rjmp	.+84     	; 0x21a0 <__stack+0xa1>
    214c:	f3 2d       	mov	r31, r3
    214e:	f8 60       	ori	r31, 0x08	; 8
    2150:	1d c0       	rjmp	.+58     	; 0x218c <__stack+0x8d>
    2152:	37 fc       	sbrc	r3, 7
    2154:	2d c0       	rjmp	.+90     	; 0x21b0 <__stack+0xb1>
    2156:	20 ed       	ldi	r18, 0xD0	; 208
    2158:	28 0f       	add	r18, r24
    215a:	2a 30       	cpi	r18, 0x0A	; 10
    215c:	40 f0       	brcs	.+16     	; 0x216e <__stack+0x6f>
    215e:	8e 32       	cpi	r24, 0x2E	; 46
    2160:	b9 f4       	brne	.+46     	; 0x2190 <__stack+0x91>
    2162:	36 fc       	sbrc	r3, 6
    2164:	75 c1       	rjmp	.+746    	; 0x2450 <__stack+0x351>
    2166:	23 2d       	mov	r18, r3
    2168:	20 64       	ori	r18, 0x40	; 64
    216a:	32 2e       	mov	r3, r18
    216c:	19 c0       	rjmp	.+50     	; 0x21a0 <__stack+0xa1>
    216e:	36 fe       	sbrs	r3, 6
    2170:	06 c0       	rjmp	.+12     	; 0x217e <__stack+0x7f>
    2172:	8a e0       	ldi	r24, 0x0A	; 10
    2174:	98 9e       	mul	r9, r24
    2176:	20 0d       	add	r18, r0
    2178:	11 24       	eor	r1, r1
    217a:	92 2e       	mov	r9, r18
    217c:	11 c0       	rjmp	.+34     	; 0x21a0 <__stack+0xa1>
    217e:	ea e0       	ldi	r30, 0x0A	; 10
    2180:	2e 9e       	mul	r2, r30
    2182:	20 0d       	add	r18, r0
    2184:	11 24       	eor	r1, r1
    2186:	22 2e       	mov	r2, r18
    2188:	f3 2d       	mov	r31, r3
    218a:	f0 62       	ori	r31, 0x20	; 32
    218c:	3f 2e       	mov	r3, r31
    218e:	08 c0       	rjmp	.+16     	; 0x21a0 <__stack+0xa1>
    2190:	8c 36       	cpi	r24, 0x6C	; 108
    2192:	21 f4       	brne	.+8      	; 0x219c <__stack+0x9d>
    2194:	83 2d       	mov	r24, r3
    2196:	80 68       	ori	r24, 0x80	; 128
    2198:	38 2e       	mov	r3, r24
    219a:	02 c0       	rjmp	.+4      	; 0x21a0 <__stack+0xa1>
    219c:	88 36       	cpi	r24, 0x68	; 104
    219e:	41 f4       	brne	.+16     	; 0x21b0 <__stack+0xb1>
    21a0:	f7 01       	movw	r30, r14
    21a2:	93 fd       	sbrc	r25, 3
    21a4:	85 91       	lpm	r24, Z+
    21a6:	93 ff       	sbrs	r25, 3
    21a8:	81 91       	ld	r24, Z+
    21aa:	7f 01       	movw	r14, r30
    21ac:	81 11       	cpse	r24, r1
    21ae:	b3 cf       	rjmp	.-154    	; 0x2116 <__stack+0x17>
    21b0:	98 2f       	mov	r25, r24
    21b2:	9f 7d       	andi	r25, 0xDF	; 223
    21b4:	95 54       	subi	r25, 0x45	; 69
    21b6:	93 30       	cpi	r25, 0x03	; 3
    21b8:	28 f4       	brcc	.+10     	; 0x21c4 <__stack+0xc5>
    21ba:	0c 5f       	subi	r16, 0xFC	; 252
    21bc:	1f 4f       	sbci	r17, 0xFF	; 255
    21be:	9f e3       	ldi	r25, 0x3F	; 63
    21c0:	99 83       	std	Y+1, r25	; 0x01
    21c2:	0d c0       	rjmp	.+26     	; 0x21de <__stack+0xdf>
    21c4:	83 36       	cpi	r24, 0x63	; 99
    21c6:	31 f0       	breq	.+12     	; 0x21d4 <__stack+0xd5>
    21c8:	83 37       	cpi	r24, 0x73	; 115
    21ca:	71 f0       	breq	.+28     	; 0x21e8 <__stack+0xe9>
    21cc:	83 35       	cpi	r24, 0x53	; 83
    21ce:	09 f0       	breq	.+2      	; 0x21d2 <__stack+0xd3>
    21d0:	55 c0       	rjmp	.+170    	; 0x227c <__stack+0x17d>
    21d2:	20 c0       	rjmp	.+64     	; 0x2214 <__stack+0x115>
    21d4:	f8 01       	movw	r30, r16
    21d6:	80 81       	ld	r24, Z
    21d8:	89 83       	std	Y+1, r24	; 0x01
    21da:	0e 5f       	subi	r16, 0xFE	; 254
    21dc:	1f 4f       	sbci	r17, 0xFF	; 255
    21de:	88 24       	eor	r8, r8
    21e0:	83 94       	inc	r8
    21e2:	91 2c       	mov	r9, r1
    21e4:	53 01       	movw	r10, r6
    21e6:	12 c0       	rjmp	.+36     	; 0x220c <__stack+0x10d>
    21e8:	28 01       	movw	r4, r16
    21ea:	f2 e0       	ldi	r31, 0x02	; 2
    21ec:	4f 0e       	add	r4, r31
    21ee:	51 1c       	adc	r5, r1
    21f0:	f8 01       	movw	r30, r16
    21f2:	a0 80       	ld	r10, Z
    21f4:	b1 80       	ldd	r11, Z+1	; 0x01
    21f6:	36 fe       	sbrs	r3, 6
    21f8:	03 c0       	rjmp	.+6      	; 0x2200 <__stack+0x101>
    21fa:	69 2d       	mov	r22, r9
    21fc:	70 e0       	ldi	r23, 0x00	; 0
    21fe:	02 c0       	rjmp	.+4      	; 0x2204 <__stack+0x105>
    2200:	6f ef       	ldi	r22, 0xFF	; 255
    2202:	7f ef       	ldi	r23, 0xFF	; 255
    2204:	c5 01       	movw	r24, r10
    2206:	4e d1       	rcall	.+668    	; 0x24a4 <strnlen>
    2208:	4c 01       	movw	r8, r24
    220a:	82 01       	movw	r16, r4
    220c:	f3 2d       	mov	r31, r3
    220e:	ff 77       	andi	r31, 0x7F	; 127
    2210:	3f 2e       	mov	r3, r31
    2212:	15 c0       	rjmp	.+42     	; 0x223e <__stack+0x13f>
    2214:	28 01       	movw	r4, r16
    2216:	22 e0       	ldi	r18, 0x02	; 2
    2218:	42 0e       	add	r4, r18
    221a:	51 1c       	adc	r5, r1
    221c:	f8 01       	movw	r30, r16
    221e:	a0 80       	ld	r10, Z
    2220:	b1 80       	ldd	r11, Z+1	; 0x01
    2222:	36 fe       	sbrs	r3, 6
    2224:	03 c0       	rjmp	.+6      	; 0x222c <__stack+0x12d>
    2226:	69 2d       	mov	r22, r9
    2228:	70 e0       	ldi	r23, 0x00	; 0
    222a:	02 c0       	rjmp	.+4      	; 0x2230 <__stack+0x131>
    222c:	6f ef       	ldi	r22, 0xFF	; 255
    222e:	7f ef       	ldi	r23, 0xFF	; 255
    2230:	c5 01       	movw	r24, r10
    2232:	2d d1       	rcall	.+602    	; 0x248e <strnlen_P>
    2234:	4c 01       	movw	r8, r24
    2236:	f3 2d       	mov	r31, r3
    2238:	f0 68       	ori	r31, 0x80	; 128
    223a:	3f 2e       	mov	r3, r31
    223c:	82 01       	movw	r16, r4
    223e:	33 fc       	sbrc	r3, 3
    2240:	19 c0       	rjmp	.+50     	; 0x2274 <__stack+0x175>
    2242:	82 2d       	mov	r24, r2
    2244:	90 e0       	ldi	r25, 0x00	; 0
    2246:	88 16       	cp	r8, r24
    2248:	99 06       	cpc	r9, r25
    224a:	a0 f4       	brcc	.+40     	; 0x2274 <__stack+0x175>
    224c:	b6 01       	movw	r22, r12
    224e:	80 e2       	ldi	r24, 0x20	; 32
    2250:	90 e0       	ldi	r25, 0x00	; 0
    2252:	33 d1       	rcall	.+614    	; 0x24ba <fputc>
    2254:	2a 94       	dec	r2
    2256:	f5 cf       	rjmp	.-22     	; 0x2242 <__stack+0x143>
    2258:	f5 01       	movw	r30, r10
    225a:	37 fc       	sbrc	r3, 7
    225c:	85 91       	lpm	r24, Z+
    225e:	37 fe       	sbrs	r3, 7
    2260:	81 91       	ld	r24, Z+
    2262:	5f 01       	movw	r10, r30
    2264:	b6 01       	movw	r22, r12
    2266:	90 e0       	ldi	r25, 0x00	; 0
    2268:	28 d1       	rcall	.+592    	; 0x24ba <fputc>
    226a:	21 10       	cpse	r2, r1
    226c:	2a 94       	dec	r2
    226e:	21 e0       	ldi	r18, 0x01	; 1
    2270:	82 1a       	sub	r8, r18
    2272:	91 08       	sbc	r9, r1
    2274:	81 14       	cp	r8, r1
    2276:	91 04       	cpc	r9, r1
    2278:	79 f7       	brne	.-34     	; 0x2258 <__stack+0x159>
    227a:	e1 c0       	rjmp	.+450    	; 0x243e <__stack+0x33f>
    227c:	84 36       	cpi	r24, 0x64	; 100
    227e:	11 f0       	breq	.+4      	; 0x2284 <__stack+0x185>
    2280:	89 36       	cpi	r24, 0x69	; 105
    2282:	39 f5       	brne	.+78     	; 0x22d2 <__stack+0x1d3>
    2284:	f8 01       	movw	r30, r16
    2286:	37 fe       	sbrs	r3, 7
    2288:	07 c0       	rjmp	.+14     	; 0x2298 <__stack+0x199>
    228a:	60 81       	ld	r22, Z
    228c:	71 81       	ldd	r23, Z+1	; 0x01
    228e:	82 81       	ldd	r24, Z+2	; 0x02
    2290:	93 81       	ldd	r25, Z+3	; 0x03
    2292:	0c 5f       	subi	r16, 0xFC	; 252
    2294:	1f 4f       	sbci	r17, 0xFF	; 255
    2296:	08 c0       	rjmp	.+16     	; 0x22a8 <__stack+0x1a9>
    2298:	60 81       	ld	r22, Z
    229a:	71 81       	ldd	r23, Z+1	; 0x01
    229c:	07 2e       	mov	r0, r23
    229e:	00 0c       	add	r0, r0
    22a0:	88 0b       	sbc	r24, r24
    22a2:	99 0b       	sbc	r25, r25
    22a4:	0e 5f       	subi	r16, 0xFE	; 254
    22a6:	1f 4f       	sbci	r17, 0xFF	; 255
    22a8:	f3 2d       	mov	r31, r3
    22aa:	ff 76       	andi	r31, 0x6F	; 111
    22ac:	3f 2e       	mov	r3, r31
    22ae:	97 ff       	sbrs	r25, 7
    22b0:	09 c0       	rjmp	.+18     	; 0x22c4 <__stack+0x1c5>
    22b2:	90 95       	com	r25
    22b4:	80 95       	com	r24
    22b6:	70 95       	com	r23
    22b8:	61 95       	neg	r22
    22ba:	7f 4f       	sbci	r23, 0xFF	; 255
    22bc:	8f 4f       	sbci	r24, 0xFF	; 255
    22be:	9f 4f       	sbci	r25, 0xFF	; 255
    22c0:	f0 68       	ori	r31, 0x80	; 128
    22c2:	3f 2e       	mov	r3, r31
    22c4:	2a e0       	ldi	r18, 0x0A	; 10
    22c6:	30 e0       	ldi	r19, 0x00	; 0
    22c8:	a3 01       	movw	r20, r6
    22ca:	33 d1       	rcall	.+614    	; 0x2532 <__ultoa_invert>
    22cc:	88 2e       	mov	r8, r24
    22ce:	86 18       	sub	r8, r6
    22d0:	44 c0       	rjmp	.+136    	; 0x235a <__stack+0x25b>
    22d2:	85 37       	cpi	r24, 0x75	; 117
    22d4:	31 f4       	brne	.+12     	; 0x22e2 <__stack+0x1e3>
    22d6:	23 2d       	mov	r18, r3
    22d8:	2f 7e       	andi	r18, 0xEF	; 239
    22da:	b2 2e       	mov	r11, r18
    22dc:	2a e0       	ldi	r18, 0x0A	; 10
    22de:	30 e0       	ldi	r19, 0x00	; 0
    22e0:	25 c0       	rjmp	.+74     	; 0x232c <__stack+0x22d>
    22e2:	93 2d       	mov	r25, r3
    22e4:	99 7f       	andi	r25, 0xF9	; 249
    22e6:	b9 2e       	mov	r11, r25
    22e8:	8f 36       	cpi	r24, 0x6F	; 111
    22ea:	c1 f0       	breq	.+48     	; 0x231c <__stack+0x21d>
    22ec:	18 f4       	brcc	.+6      	; 0x22f4 <__stack+0x1f5>
    22ee:	88 35       	cpi	r24, 0x58	; 88
    22f0:	79 f0       	breq	.+30     	; 0x2310 <__stack+0x211>
    22f2:	ae c0       	rjmp	.+348    	; 0x2450 <__stack+0x351>
    22f4:	80 37       	cpi	r24, 0x70	; 112
    22f6:	19 f0       	breq	.+6      	; 0x22fe <__stack+0x1ff>
    22f8:	88 37       	cpi	r24, 0x78	; 120
    22fa:	21 f0       	breq	.+8      	; 0x2304 <__stack+0x205>
    22fc:	a9 c0       	rjmp	.+338    	; 0x2450 <__stack+0x351>
    22fe:	e9 2f       	mov	r30, r25
    2300:	e0 61       	ori	r30, 0x10	; 16
    2302:	be 2e       	mov	r11, r30
    2304:	b4 fe       	sbrs	r11, 4
    2306:	0d c0       	rjmp	.+26     	; 0x2322 <__stack+0x223>
    2308:	fb 2d       	mov	r31, r11
    230a:	f4 60       	ori	r31, 0x04	; 4
    230c:	bf 2e       	mov	r11, r31
    230e:	09 c0       	rjmp	.+18     	; 0x2322 <__stack+0x223>
    2310:	34 fe       	sbrs	r3, 4
    2312:	0a c0       	rjmp	.+20     	; 0x2328 <__stack+0x229>
    2314:	29 2f       	mov	r18, r25
    2316:	26 60       	ori	r18, 0x06	; 6
    2318:	b2 2e       	mov	r11, r18
    231a:	06 c0       	rjmp	.+12     	; 0x2328 <__stack+0x229>
    231c:	28 e0       	ldi	r18, 0x08	; 8
    231e:	30 e0       	ldi	r19, 0x00	; 0
    2320:	05 c0       	rjmp	.+10     	; 0x232c <__stack+0x22d>
    2322:	20 e1       	ldi	r18, 0x10	; 16
    2324:	30 e0       	ldi	r19, 0x00	; 0
    2326:	02 c0       	rjmp	.+4      	; 0x232c <__stack+0x22d>
    2328:	20 e1       	ldi	r18, 0x10	; 16
    232a:	32 e0       	ldi	r19, 0x02	; 2
    232c:	f8 01       	movw	r30, r16
    232e:	b7 fe       	sbrs	r11, 7
    2330:	07 c0       	rjmp	.+14     	; 0x2340 <__stack+0x241>
    2332:	60 81       	ld	r22, Z
    2334:	71 81       	ldd	r23, Z+1	; 0x01
    2336:	82 81       	ldd	r24, Z+2	; 0x02
    2338:	93 81       	ldd	r25, Z+3	; 0x03
    233a:	0c 5f       	subi	r16, 0xFC	; 252
    233c:	1f 4f       	sbci	r17, 0xFF	; 255
    233e:	06 c0       	rjmp	.+12     	; 0x234c <__stack+0x24d>
    2340:	60 81       	ld	r22, Z
    2342:	71 81       	ldd	r23, Z+1	; 0x01
    2344:	80 e0       	ldi	r24, 0x00	; 0
    2346:	90 e0       	ldi	r25, 0x00	; 0
    2348:	0e 5f       	subi	r16, 0xFE	; 254
    234a:	1f 4f       	sbci	r17, 0xFF	; 255
    234c:	a3 01       	movw	r20, r6
    234e:	f1 d0       	rcall	.+482    	; 0x2532 <__ultoa_invert>
    2350:	88 2e       	mov	r8, r24
    2352:	86 18       	sub	r8, r6
    2354:	fb 2d       	mov	r31, r11
    2356:	ff 77       	andi	r31, 0x7F	; 127
    2358:	3f 2e       	mov	r3, r31
    235a:	36 fe       	sbrs	r3, 6
    235c:	0d c0       	rjmp	.+26     	; 0x2378 <__stack+0x279>
    235e:	23 2d       	mov	r18, r3
    2360:	2e 7f       	andi	r18, 0xFE	; 254
    2362:	a2 2e       	mov	r10, r18
    2364:	89 14       	cp	r8, r9
    2366:	58 f4       	brcc	.+22     	; 0x237e <__stack+0x27f>
    2368:	34 fe       	sbrs	r3, 4
    236a:	0b c0       	rjmp	.+22     	; 0x2382 <__stack+0x283>
    236c:	32 fc       	sbrc	r3, 2
    236e:	09 c0       	rjmp	.+18     	; 0x2382 <__stack+0x283>
    2370:	83 2d       	mov	r24, r3
    2372:	8e 7e       	andi	r24, 0xEE	; 238
    2374:	a8 2e       	mov	r10, r24
    2376:	05 c0       	rjmp	.+10     	; 0x2382 <__stack+0x283>
    2378:	b8 2c       	mov	r11, r8
    237a:	a3 2c       	mov	r10, r3
    237c:	03 c0       	rjmp	.+6      	; 0x2384 <__stack+0x285>
    237e:	b8 2c       	mov	r11, r8
    2380:	01 c0       	rjmp	.+2      	; 0x2384 <__stack+0x285>
    2382:	b9 2c       	mov	r11, r9
    2384:	a4 fe       	sbrs	r10, 4
    2386:	0f c0       	rjmp	.+30     	; 0x23a6 <__stack+0x2a7>
    2388:	fe 01       	movw	r30, r28
    238a:	e8 0d       	add	r30, r8
    238c:	f1 1d       	adc	r31, r1
    238e:	80 81       	ld	r24, Z
    2390:	80 33       	cpi	r24, 0x30	; 48
    2392:	21 f4       	brne	.+8      	; 0x239c <__stack+0x29d>
    2394:	9a 2d       	mov	r25, r10
    2396:	99 7e       	andi	r25, 0xE9	; 233
    2398:	a9 2e       	mov	r10, r25
    239a:	09 c0       	rjmp	.+18     	; 0x23ae <__stack+0x2af>
    239c:	a2 fe       	sbrs	r10, 2
    239e:	06 c0       	rjmp	.+12     	; 0x23ac <__stack+0x2ad>
    23a0:	b3 94       	inc	r11
    23a2:	b3 94       	inc	r11
    23a4:	04 c0       	rjmp	.+8      	; 0x23ae <__stack+0x2af>
    23a6:	8a 2d       	mov	r24, r10
    23a8:	86 78       	andi	r24, 0x86	; 134
    23aa:	09 f0       	breq	.+2      	; 0x23ae <__stack+0x2af>
    23ac:	b3 94       	inc	r11
    23ae:	a3 fc       	sbrc	r10, 3
    23b0:	10 c0       	rjmp	.+32     	; 0x23d2 <__stack+0x2d3>
    23b2:	a0 fe       	sbrs	r10, 0
    23b4:	06 c0       	rjmp	.+12     	; 0x23c2 <__stack+0x2c3>
    23b6:	b2 14       	cp	r11, r2
    23b8:	80 f4       	brcc	.+32     	; 0x23da <__stack+0x2db>
    23ba:	28 0c       	add	r2, r8
    23bc:	92 2c       	mov	r9, r2
    23be:	9b 18       	sub	r9, r11
    23c0:	0d c0       	rjmp	.+26     	; 0x23dc <__stack+0x2dd>
    23c2:	b2 14       	cp	r11, r2
    23c4:	58 f4       	brcc	.+22     	; 0x23dc <__stack+0x2dd>
    23c6:	b6 01       	movw	r22, r12
    23c8:	80 e2       	ldi	r24, 0x20	; 32
    23ca:	90 e0       	ldi	r25, 0x00	; 0
    23cc:	76 d0       	rcall	.+236    	; 0x24ba <fputc>
    23ce:	b3 94       	inc	r11
    23d0:	f8 cf       	rjmp	.-16     	; 0x23c2 <__stack+0x2c3>
    23d2:	b2 14       	cp	r11, r2
    23d4:	18 f4       	brcc	.+6      	; 0x23dc <__stack+0x2dd>
    23d6:	2b 18       	sub	r2, r11
    23d8:	02 c0       	rjmp	.+4      	; 0x23de <__stack+0x2df>
    23da:	98 2c       	mov	r9, r8
    23dc:	21 2c       	mov	r2, r1
    23de:	a4 fe       	sbrs	r10, 4
    23e0:	0f c0       	rjmp	.+30     	; 0x2400 <__stack+0x301>
    23e2:	b6 01       	movw	r22, r12
    23e4:	80 e3       	ldi	r24, 0x30	; 48
    23e6:	90 e0       	ldi	r25, 0x00	; 0
    23e8:	68 d0       	rcall	.+208    	; 0x24ba <fputc>
    23ea:	a2 fe       	sbrs	r10, 2
    23ec:	16 c0       	rjmp	.+44     	; 0x241a <__stack+0x31b>
    23ee:	a1 fc       	sbrc	r10, 1
    23f0:	03 c0       	rjmp	.+6      	; 0x23f8 <__stack+0x2f9>
    23f2:	88 e7       	ldi	r24, 0x78	; 120
    23f4:	90 e0       	ldi	r25, 0x00	; 0
    23f6:	02 c0       	rjmp	.+4      	; 0x23fc <__stack+0x2fd>
    23f8:	88 e5       	ldi	r24, 0x58	; 88
    23fa:	90 e0       	ldi	r25, 0x00	; 0
    23fc:	b6 01       	movw	r22, r12
    23fe:	0c c0       	rjmp	.+24     	; 0x2418 <__stack+0x319>
    2400:	8a 2d       	mov	r24, r10
    2402:	86 78       	andi	r24, 0x86	; 134
    2404:	51 f0       	breq	.+20     	; 0x241a <__stack+0x31b>
    2406:	a1 fe       	sbrs	r10, 1
    2408:	02 c0       	rjmp	.+4      	; 0x240e <__stack+0x30f>
    240a:	8b e2       	ldi	r24, 0x2B	; 43
    240c:	01 c0       	rjmp	.+2      	; 0x2410 <__stack+0x311>
    240e:	80 e2       	ldi	r24, 0x20	; 32
    2410:	a7 fc       	sbrc	r10, 7
    2412:	8d e2       	ldi	r24, 0x2D	; 45
    2414:	b6 01       	movw	r22, r12
    2416:	90 e0       	ldi	r25, 0x00	; 0
    2418:	50 d0       	rcall	.+160    	; 0x24ba <fputc>
    241a:	89 14       	cp	r8, r9
    241c:	30 f4       	brcc	.+12     	; 0x242a <__stack+0x32b>
    241e:	b6 01       	movw	r22, r12
    2420:	80 e3       	ldi	r24, 0x30	; 48
    2422:	90 e0       	ldi	r25, 0x00	; 0
    2424:	4a d0       	rcall	.+148    	; 0x24ba <fputc>
    2426:	9a 94       	dec	r9
    2428:	f8 cf       	rjmp	.-16     	; 0x241a <__stack+0x31b>
    242a:	8a 94       	dec	r8
    242c:	f3 01       	movw	r30, r6
    242e:	e8 0d       	add	r30, r8
    2430:	f1 1d       	adc	r31, r1
    2432:	80 81       	ld	r24, Z
    2434:	b6 01       	movw	r22, r12
    2436:	90 e0       	ldi	r25, 0x00	; 0
    2438:	40 d0       	rcall	.+128    	; 0x24ba <fputc>
    243a:	81 10       	cpse	r8, r1
    243c:	f6 cf       	rjmp	.-20     	; 0x242a <__stack+0x32b>
    243e:	22 20       	and	r2, r2
    2440:	09 f4       	brne	.+2      	; 0x2444 <__stack+0x345>
    2442:	4e ce       	rjmp	.-868    	; 0x20e0 <vfprintf+0x4c>
    2444:	b6 01       	movw	r22, r12
    2446:	80 e2       	ldi	r24, 0x20	; 32
    2448:	90 e0       	ldi	r25, 0x00	; 0
    244a:	37 d0       	rcall	.+110    	; 0x24ba <fputc>
    244c:	2a 94       	dec	r2
    244e:	f7 cf       	rjmp	.-18     	; 0x243e <__stack+0x33f>
    2450:	f6 01       	movw	r30, r12
    2452:	86 81       	ldd	r24, Z+6	; 0x06
    2454:	97 81       	ldd	r25, Z+7	; 0x07
    2456:	02 c0       	rjmp	.+4      	; 0x245c <__stack+0x35d>
    2458:	8f ef       	ldi	r24, 0xFF	; 255
    245a:	9f ef       	ldi	r25, 0xFF	; 255
    245c:	2b 96       	adiw	r28, 0x0b	; 11
    245e:	0f b6       	in	r0, 0x3f	; 63
    2460:	f8 94       	cli
    2462:	de bf       	out	0x3e, r29	; 62
    2464:	0f be       	out	0x3f, r0	; 63
    2466:	cd bf       	out	0x3d, r28	; 61
    2468:	df 91       	pop	r29
    246a:	cf 91       	pop	r28
    246c:	1f 91       	pop	r17
    246e:	0f 91       	pop	r16
    2470:	ff 90       	pop	r15
    2472:	ef 90       	pop	r14
    2474:	df 90       	pop	r13
    2476:	cf 90       	pop	r12
    2478:	bf 90       	pop	r11
    247a:	af 90       	pop	r10
    247c:	9f 90       	pop	r9
    247e:	8f 90       	pop	r8
    2480:	7f 90       	pop	r7
    2482:	6f 90       	pop	r6
    2484:	5f 90       	pop	r5
    2486:	4f 90       	pop	r4
    2488:	3f 90       	pop	r3
    248a:	2f 90       	pop	r2
    248c:	08 95       	ret

0000248e <strnlen_P>:
    248e:	fc 01       	movw	r30, r24
    2490:	05 90       	lpm	r0, Z+
    2492:	61 50       	subi	r22, 0x01	; 1
    2494:	70 40       	sbci	r23, 0x00	; 0
    2496:	01 10       	cpse	r0, r1
    2498:	d8 f7       	brcc	.-10     	; 0x2490 <strnlen_P+0x2>
    249a:	80 95       	com	r24
    249c:	90 95       	com	r25
    249e:	8e 0f       	add	r24, r30
    24a0:	9f 1f       	adc	r25, r31
    24a2:	08 95       	ret

000024a4 <strnlen>:
    24a4:	fc 01       	movw	r30, r24
    24a6:	61 50       	subi	r22, 0x01	; 1
    24a8:	70 40       	sbci	r23, 0x00	; 0
    24aa:	01 90       	ld	r0, Z+
    24ac:	01 10       	cpse	r0, r1
    24ae:	d8 f7       	brcc	.-10     	; 0x24a6 <strnlen+0x2>
    24b0:	80 95       	com	r24
    24b2:	90 95       	com	r25
    24b4:	8e 0f       	add	r24, r30
    24b6:	9f 1f       	adc	r25, r31
    24b8:	08 95       	ret

000024ba <fputc>:
    24ba:	0f 93       	push	r16
    24bc:	1f 93       	push	r17
    24be:	cf 93       	push	r28
    24c0:	df 93       	push	r29
    24c2:	fb 01       	movw	r30, r22
    24c4:	23 81       	ldd	r18, Z+3	; 0x03
    24c6:	21 fd       	sbrc	r18, 1
    24c8:	03 c0       	rjmp	.+6      	; 0x24d0 <fputc+0x16>
    24ca:	8f ef       	ldi	r24, 0xFF	; 255
    24cc:	9f ef       	ldi	r25, 0xFF	; 255
    24ce:	2c c0       	rjmp	.+88     	; 0x2528 <fputc+0x6e>
    24d0:	22 ff       	sbrs	r18, 2
    24d2:	16 c0       	rjmp	.+44     	; 0x2500 <fputc+0x46>
    24d4:	46 81       	ldd	r20, Z+6	; 0x06
    24d6:	57 81       	ldd	r21, Z+7	; 0x07
    24d8:	24 81       	ldd	r18, Z+4	; 0x04
    24da:	35 81       	ldd	r19, Z+5	; 0x05
    24dc:	42 17       	cp	r20, r18
    24de:	53 07       	cpc	r21, r19
    24e0:	44 f4       	brge	.+16     	; 0x24f2 <fputc+0x38>
    24e2:	a0 81       	ld	r26, Z
    24e4:	b1 81       	ldd	r27, Z+1	; 0x01
    24e6:	9d 01       	movw	r18, r26
    24e8:	2f 5f       	subi	r18, 0xFF	; 255
    24ea:	3f 4f       	sbci	r19, 0xFF	; 255
    24ec:	31 83       	std	Z+1, r19	; 0x01
    24ee:	20 83       	st	Z, r18
    24f0:	8c 93       	st	X, r24
    24f2:	26 81       	ldd	r18, Z+6	; 0x06
    24f4:	37 81       	ldd	r19, Z+7	; 0x07
    24f6:	2f 5f       	subi	r18, 0xFF	; 255
    24f8:	3f 4f       	sbci	r19, 0xFF	; 255
    24fa:	37 83       	std	Z+7, r19	; 0x07
    24fc:	26 83       	std	Z+6, r18	; 0x06
    24fe:	14 c0       	rjmp	.+40     	; 0x2528 <fputc+0x6e>
    2500:	8b 01       	movw	r16, r22
    2502:	ec 01       	movw	r28, r24
    2504:	fb 01       	movw	r30, r22
    2506:	00 84       	ldd	r0, Z+8	; 0x08
    2508:	f1 85       	ldd	r31, Z+9	; 0x09
    250a:	e0 2d       	mov	r30, r0
    250c:	09 95       	icall
    250e:	89 2b       	or	r24, r25
    2510:	e1 f6       	brne	.-72     	; 0x24ca <fputc+0x10>
    2512:	d8 01       	movw	r26, r16
    2514:	16 96       	adiw	r26, 0x06	; 6
    2516:	8d 91       	ld	r24, X+
    2518:	9c 91       	ld	r25, X
    251a:	17 97       	sbiw	r26, 0x07	; 7
    251c:	01 96       	adiw	r24, 0x01	; 1
    251e:	17 96       	adiw	r26, 0x07	; 7
    2520:	9c 93       	st	X, r25
    2522:	8e 93       	st	-X, r24
    2524:	16 97       	sbiw	r26, 0x06	; 6
    2526:	ce 01       	movw	r24, r28
    2528:	df 91       	pop	r29
    252a:	cf 91       	pop	r28
    252c:	1f 91       	pop	r17
    252e:	0f 91       	pop	r16
    2530:	08 95       	ret

00002532 <__ultoa_invert>:
    2532:	fa 01       	movw	r30, r20
    2534:	aa 27       	eor	r26, r26
    2536:	28 30       	cpi	r18, 0x08	; 8
    2538:	51 f1       	breq	.+84     	; 0x258e <__ultoa_invert+0x5c>
    253a:	20 31       	cpi	r18, 0x10	; 16
    253c:	81 f1       	breq	.+96     	; 0x259e <__ultoa_invert+0x6c>
    253e:	e8 94       	clt
    2540:	6f 93       	push	r22
    2542:	6e 7f       	andi	r22, 0xFE	; 254
    2544:	6e 5f       	subi	r22, 0xFE	; 254
    2546:	7f 4f       	sbci	r23, 0xFF	; 255
    2548:	8f 4f       	sbci	r24, 0xFF	; 255
    254a:	9f 4f       	sbci	r25, 0xFF	; 255
    254c:	af 4f       	sbci	r26, 0xFF	; 255
    254e:	b1 e0       	ldi	r27, 0x01	; 1
    2550:	3e d0       	rcall	.+124    	; 0x25ce <__ultoa_invert+0x9c>
    2552:	b4 e0       	ldi	r27, 0x04	; 4
    2554:	3c d0       	rcall	.+120    	; 0x25ce <__ultoa_invert+0x9c>
    2556:	67 0f       	add	r22, r23
    2558:	78 1f       	adc	r23, r24
    255a:	89 1f       	adc	r24, r25
    255c:	9a 1f       	adc	r25, r26
    255e:	a1 1d       	adc	r26, r1
    2560:	68 0f       	add	r22, r24
    2562:	79 1f       	adc	r23, r25
    2564:	8a 1f       	adc	r24, r26
    2566:	91 1d       	adc	r25, r1
    2568:	a1 1d       	adc	r26, r1
    256a:	6a 0f       	add	r22, r26
    256c:	71 1d       	adc	r23, r1
    256e:	81 1d       	adc	r24, r1
    2570:	91 1d       	adc	r25, r1
    2572:	a1 1d       	adc	r26, r1
    2574:	20 d0       	rcall	.+64     	; 0x25b6 <__ultoa_invert+0x84>
    2576:	09 f4       	brne	.+2      	; 0x257a <__ultoa_invert+0x48>
    2578:	68 94       	set
    257a:	3f 91       	pop	r19
    257c:	2a e0       	ldi	r18, 0x0A	; 10
    257e:	26 9f       	mul	r18, r22
    2580:	11 24       	eor	r1, r1
    2582:	30 19       	sub	r19, r0
    2584:	30 5d       	subi	r19, 0xD0	; 208
    2586:	31 93       	st	Z+, r19
    2588:	de f6       	brtc	.-74     	; 0x2540 <__ultoa_invert+0xe>
    258a:	cf 01       	movw	r24, r30
    258c:	08 95       	ret
    258e:	46 2f       	mov	r20, r22
    2590:	47 70       	andi	r20, 0x07	; 7
    2592:	40 5d       	subi	r20, 0xD0	; 208
    2594:	41 93       	st	Z+, r20
    2596:	b3 e0       	ldi	r27, 0x03	; 3
    2598:	0f d0       	rcall	.+30     	; 0x25b8 <__ultoa_invert+0x86>
    259a:	c9 f7       	brne	.-14     	; 0x258e <__ultoa_invert+0x5c>
    259c:	f6 cf       	rjmp	.-20     	; 0x258a <__ultoa_invert+0x58>
    259e:	46 2f       	mov	r20, r22
    25a0:	4f 70       	andi	r20, 0x0F	; 15
    25a2:	40 5d       	subi	r20, 0xD0	; 208
    25a4:	4a 33       	cpi	r20, 0x3A	; 58
    25a6:	18 f0       	brcs	.+6      	; 0x25ae <__ultoa_invert+0x7c>
    25a8:	49 5d       	subi	r20, 0xD9	; 217
    25aa:	31 fd       	sbrc	r19, 1
    25ac:	40 52       	subi	r20, 0x20	; 32
    25ae:	41 93       	st	Z+, r20
    25b0:	02 d0       	rcall	.+4      	; 0x25b6 <__ultoa_invert+0x84>
    25b2:	a9 f7       	brne	.-22     	; 0x259e <__ultoa_invert+0x6c>
    25b4:	ea cf       	rjmp	.-44     	; 0x258a <__ultoa_invert+0x58>
    25b6:	b4 e0       	ldi	r27, 0x04	; 4
    25b8:	a6 95       	lsr	r26
    25ba:	97 95       	ror	r25
    25bc:	87 95       	ror	r24
    25be:	77 95       	ror	r23
    25c0:	67 95       	ror	r22
    25c2:	ba 95       	dec	r27
    25c4:	c9 f7       	brne	.-14     	; 0x25b8 <__ultoa_invert+0x86>
    25c6:	00 97       	sbiw	r24, 0x00	; 0
    25c8:	61 05       	cpc	r22, r1
    25ca:	71 05       	cpc	r23, r1
    25cc:	08 95       	ret
    25ce:	9b 01       	movw	r18, r22
    25d0:	ac 01       	movw	r20, r24
    25d2:	0a 2e       	mov	r0, r26
    25d4:	06 94       	lsr	r0
    25d6:	57 95       	ror	r21
    25d8:	47 95       	ror	r20
    25da:	37 95       	ror	r19
    25dc:	27 95       	ror	r18
    25de:	ba 95       	dec	r27
    25e0:	c9 f7       	brne	.-14     	; 0x25d4 <__ultoa_invert+0xa2>
    25e2:	62 0f       	add	r22, r18
    25e4:	73 1f       	adc	r23, r19
    25e6:	84 1f       	adc	r24, r20
    25e8:	95 1f       	adc	r25, r21
    25ea:	a0 1d       	adc	r26, r0
    25ec:	08 95       	ret

000025ee <_exit>:
    25ee:	f8 94       	cli

000025f0 <__stop_program>:
    25f0:	ff cf       	rjmp	.-2      	; 0x25f0 <__stop_program>
